Archive member included because of file (symbol)

f:/quatus/nios2eds/bin/gnu/h-i686-mingw32/bin/../lib/gcc/nios2-elf/4.1.2\libgcc.a(_mul_sf.o)
                              obj/default/timebt.o (__mulsf3)
f:/quatus/nios2eds/bin/gnu/h-i686-mingw32/bin/../lib/gcc/nios2-elf/4.1.2\libgcc.a(_sf_to_si.o)
                              obj/default/timebt.o (__fixsfsi)
f:/quatus/nios2eds/bin/gnu/h-i686-mingw32/bin/../lib/gcc/nios2-elf/4.1.2\libgcc.a(_thenan_sf.o)
                              f:/quatus/nios2eds/bin/gnu/h-i686-mingw32/bin/../lib/gcc/nios2-elf/4.1.2\libgcc.a(_mul_sf.o) (__thenan_sf)
f:/quatus/nios2eds/bin/gnu/h-i686-mingw32/bin/../lib/gcc/nios2-elf/4.1.2\libgcc.a(lib2-divmod.o)
                              obj/default/timebt.o (__divsi3)
f:/quatus/nios2eds/bin/gnu/h-i686-mingw32/bin/../lib/gcc/nios2-elf/4.1.2\libgcc.a(_muldi3.o)
                              f:/quatus/nios2eds/bin/gnu/h-i686-mingw32/bin/../lib/gcc/nios2-elf/4.1.2\libgcc.a(_mul_sf.o) (__muldi3)
f:/quatus/nios2eds/bin/gnu/h-i686-mingw32/bin/../lib/gcc/nios2-elf/4.1.2\libgcc.a(_pack_sf.o)
                              f:/quatus/nios2eds/bin/gnu/h-i686-mingw32/bin/../lib/gcc/nios2-elf/4.1.2\libgcc.a(_mul_sf.o) (__pack_f)
f:/quatus/nios2eds/bin/gnu/h-i686-mingw32/bin/../lib/gcc/nios2-elf/4.1.2\libgcc.a(_unpack_sf.o)
                              f:/quatus/nios2eds/bin/gnu/h-i686-mingw32/bin/../lib/gcc/nios2-elf/4.1.2\libgcc.a(_mul_sf.o) (__unpack_f)
f:/quatus/nios2eds/bin/gnu/h-i686-mingw32/bin/../lib/gcc/nios2-elf/4.1.2/../../../../nios2-elf/lib\libc.a(lib_a-printf.o)
                              obj/default/hello_world.o (printf)
f:/quatus/nios2eds/bin/gnu/h-i686-mingw32/bin/../lib/gcc/nios2-elf/4.1.2/../../../../nios2-elf/lib\libc.a(lib_a-puts.o)
                              obj/default/hello_world.o (puts)
f:/quatus/nios2eds/bin/gnu/h-i686-mingw32/bin/../lib/gcc/nios2-elf/4.1.2/../../../../nios2-elf/lib\libc.a(lib_a-strlen.o)
                              f:/quatus/nios2eds/bin/gnu/h-i686-mingw32/bin/../lib/gcc/nios2-elf/4.1.2/../../../../nios2-elf/lib\libc.a(lib_a-puts.o) (strlen)
f:/quatus/nios2eds/bin/gnu/h-i686-mingw32/bin/../lib/gcc/nios2-elf/4.1.2/../../../../nios2-elf/lib\libc.a(lib_a-vfprintf.o)
                              f:/quatus/nios2eds/bin/gnu/h-i686-mingw32/bin/../lib/gcc/nios2-elf/4.1.2/../../../../nios2-elf/lib\libc.a(lib_a-printf.o) (___vfprintf_internal_r)
f:/quatus/nios2eds/bin/gnu/h-i686-mingw32/bin/../lib/gcc/nios2-elf/4.1.2/../../../../nios2-elf/lib\libc.a(lib_a-wsetup.o)
                              f:/quatus/nios2eds/bin/gnu/h-i686-mingw32/bin/../lib/gcc/nios2-elf/4.1.2/../../../../nios2-elf/lib\libc.a(lib_a-vfprintf.o) (__swsetup_r)
f:/quatus/nios2eds/bin/gnu/h-i686-mingw32/bin/../lib/gcc/nios2-elf/4.1.2/../../../../nios2-elf/lib\libc.a(lib_a-dtoa.o)
                              f:/quatus/nios2eds/bin/gnu/h-i686-mingw32/bin/../lib/gcc/nios2-elf/4.1.2/../../../../nios2-elf/lib\libc.a(lib_a-vfprintf.o) (_dtoa_r)
f:/quatus/nios2eds/bin/gnu/h-i686-mingw32/bin/../lib/gcc/nios2-elf/4.1.2/../../../../nios2-elf/lib\libc.a(lib_a-fflush.o)
                              f:/quatus/nios2eds/bin/gnu/h-i686-mingw32/bin/../lib/gcc/nios2-elf/4.1.2/../../../../nios2-elf/lib\libc.a(lib_a-vfprintf.o) (_fflush_r)
f:/quatus/nios2eds/bin/gnu/h-i686-mingw32/bin/../lib/gcc/nios2-elf/4.1.2/../../../../nios2-elf/lib\libc.a(lib_a-findfp.o)
                              f:/quatus/nios2eds/bin/gnu/h-i686-mingw32/bin/../lib/gcc/nios2-elf/4.1.2/../../../../nios2-elf/lib\libc.a(lib_a-vfprintf.o) (__sinit)
f:/quatus/nios2eds/bin/gnu/h-i686-mingw32/bin/../lib/gcc/nios2-elf/4.1.2/../../../../nios2-elf/lib\libc.a(lib_a-freer.o)
                              f:/quatus/nios2eds/bin/gnu/h-i686-mingw32/bin/../lib/gcc/nios2-elf/4.1.2/../../../../nios2-elf/lib\libc.a(lib_a-wsetup.o) (_free_r)
f:/quatus/nios2eds/bin/gnu/h-i686-mingw32/bin/../lib/gcc/nios2-elf/4.1.2/../../../../nios2-elf/lib\libc.a(lib_a-fvwrite.o)
                              f:/quatus/nios2eds/bin/gnu/h-i686-mingw32/bin/../lib/gcc/nios2-elf/4.1.2/../../../../nios2-elf/lib\libc.a(lib_a-puts.o) (__sfvwrite_r)
f:/quatus/nios2eds/bin/gnu/h-i686-mingw32/bin/../lib/gcc/nios2-elf/4.1.2/../../../../nios2-elf/lib\libc.a(lib_a-fwalk.o)
                              f:/quatus/nios2eds/bin/gnu/h-i686-mingw32/bin/../lib/gcc/nios2-elf/4.1.2/../../../../nios2-elf/lib\libc.a(lib_a-fflush.o) (_fwalk_reent)
f:/quatus/nios2eds/bin/gnu/h-i686-mingw32/bin/../lib/gcc/nios2-elf/4.1.2/../../../../nios2-elf/lib\libc.a(lib_a-impure.o)
                              f:/quatus/nios2eds/bin/gnu/h-i686-mingw32/bin/../lib/gcc/nios2-elf/4.1.2/../../../../nios2-elf/lib\libc.a(lib_a-printf.o) (_impure_ptr)
f:/quatus/nios2eds/bin/gnu/h-i686-mingw32/bin/../lib/gcc/nios2-elf/4.1.2/../../../../nios2-elf/lib\libc.a(lib_a-locale.o)
                              f:/quatus/nios2eds/bin/gnu/h-i686-mingw32/bin/../lib/gcc/nios2-elf/4.1.2/../../../../nios2-elf/lib\libc.a(lib_a-vfprintf.o) (_localeconv_r)
f:/quatus/nios2eds/bin/gnu/h-i686-mingw32/bin/../lib/gcc/nios2-elf/4.1.2/../../../../nios2-elf/lib\libc.a(lib_a-makebuf.o)
                              f:/quatus/nios2eds/bin/gnu/h-i686-mingw32/bin/../lib/gcc/nios2-elf/4.1.2/../../../../nios2-elf/lib\libc.a(lib_a-wsetup.o) (__smakebuf_r)
f:/quatus/nios2eds/bin/gnu/h-i686-mingw32/bin/../lib/gcc/nios2-elf/4.1.2/../../../../nios2-elf/lib\libc.a(lib_a-mallocr.o)
                              f:/quatus/nios2eds/bin/gnu/h-i686-mingw32/bin/../lib/gcc/nios2-elf/4.1.2/../../../../nios2-elf/lib\libc.a(lib_a-findfp.o) (_malloc_r)
f:/quatus/nios2eds/bin/gnu/h-i686-mingw32/bin/../lib/gcc/nios2-elf/4.1.2/../../../../nios2-elf/lib\libc.a(lib_a-memchr.o)
                              f:/quatus/nios2eds/bin/gnu/h-i686-mingw32/bin/../lib/gcc/nios2-elf/4.1.2/../../../../nios2-elf/lib\libc.a(lib_a-vfprintf.o) (memchr)
f:/quatus/nios2eds/bin/gnu/h-i686-mingw32/bin/../lib/gcc/nios2-elf/4.1.2/../../../../nios2-elf/lib\libc.a(lib_a-memcpy.o)
                              f:/quatus/nios2eds/bin/gnu/h-i686-mingw32/bin/../lib/gcc/nios2-elf/4.1.2/../../../../nios2-elf/lib\libc.a(lib_a-dtoa.o) (memcpy)
f:/quatus/nios2eds/bin/gnu/h-i686-mingw32/bin/../lib/gcc/nios2-elf/4.1.2/../../../../nios2-elf/lib\libc.a(lib_a-memmove.o)
                              f:/quatus/nios2eds/bin/gnu/h-i686-mingw32/bin/../lib/gcc/nios2-elf/4.1.2/../../../../nios2-elf/lib\libc.a(lib_a-fvwrite.o) (memmove)
f:/quatus/nios2eds/bin/gnu/h-i686-mingw32/bin/../lib/gcc/nios2-elf/4.1.2/../../../../nios2-elf/lib\libc.a(lib_a-memset.o)
                              f:/quatus/nios2eds/bin/gnu/h-i686-mingw32/bin/../lib/gcc/nios2-elf/4.1.2/../../../../nios2-elf/lib\libc.a(lib_a-findfp.o) (memset)
f:/quatus/nios2eds/bin/gnu/h-i686-mingw32/bin/../lib/gcc/nios2-elf/4.1.2/../../../../nios2-elf/lib\libc.a(lib_a-mprec.o)
                              f:/quatus/nios2eds/bin/gnu/h-i686-mingw32/bin/../lib/gcc/nios2-elf/4.1.2/../../../../nios2-elf/lib\libc.a(lib_a-dtoa.o) (_Bfree)
f:/quatus/nios2eds/bin/gnu/h-i686-mingw32/bin/../lib/gcc/nios2-elf/4.1.2/../../../../nios2-elf/lib\libc.a(lib_a-reallocr.o)
                              f:/quatus/nios2eds/bin/gnu/h-i686-mingw32/bin/../lib/gcc/nios2-elf/4.1.2/../../../../nios2-elf/lib\libc.a(lib_a-fvwrite.o) (_realloc_r)
f:/quatus/nios2eds/bin/gnu/h-i686-mingw32/bin/../lib/gcc/nios2-elf/4.1.2/../../../../nios2-elf/lib\libc.a(lib_a-s_isinfd.o)
                              f:/quatus/nios2eds/bin/gnu/h-i686-mingw32/bin/../lib/gcc/nios2-elf/4.1.2/../../../../nios2-elf/lib\libc.a(lib_a-vfprintf.o) (__isinfd)
f:/quatus/nios2eds/bin/gnu/h-i686-mingw32/bin/../lib/gcc/nios2-elf/4.1.2/../../../../nios2-elf/lib\libc.a(lib_a-s_isnand.o)
                              f:/quatus/nios2eds/bin/gnu/h-i686-mingw32/bin/../lib/gcc/nios2-elf/4.1.2/../../../../nios2-elf/lib\libc.a(lib_a-vfprintf.o) (__isnand)
f:/quatus/nios2eds/bin/gnu/h-i686-mingw32/bin/../lib/gcc/nios2-elf/4.1.2/../../../../nios2-elf/lib\libc.a(lib_a-sbrkr.o)
                              f:/quatus/nios2eds/bin/gnu/h-i686-mingw32/bin/../lib/gcc/nios2-elf/4.1.2/../../../../nios2-elf/lib\libc.a(lib_a-freer.o) (_sbrk_r)
f:/quatus/nios2eds/bin/gnu/h-i686-mingw32/bin/../lib/gcc/nios2-elf/4.1.2/../../../../nios2-elf/lib\libc.a(lib_a-stdio.o)
                              f:/quatus/nios2eds/bin/gnu/h-i686-mingw32/bin/../lib/gcc/nios2-elf/4.1.2/../../../../nios2-elf/lib\libc.a(lib_a-findfp.o) (__sclose)
f:/quatus/nios2eds/bin/gnu/h-i686-mingw32/bin/../lib/gcc/nios2-elf/4.1.2/../../../../nios2-elf/lib\libc.a(lib_a-strcmp.o)
                              f:/quatus/nios2eds/bin/gnu/h-i686-mingw32/bin/../lib/gcc/nios2-elf/4.1.2/../../../../nios2-elf/lib\libc.a(lib_a-locale.o) (strcmp)
f:/quatus/nios2eds/bin/gnu/h-i686-mingw32/bin/../lib/gcc/nios2-elf/4.1.2/../../../../nios2-elf/lib\libc.a(lib_a-writer.o)
                              f:/quatus/nios2eds/bin/gnu/h-i686-mingw32/bin/../lib/gcc/nios2-elf/4.1.2/../../../../nios2-elf/lib\libc.a(lib_a-stdio.o) (_write_r)
f:/quatus/nios2eds/bin/gnu/h-i686-mingw32/bin/../lib/gcc/nios2-elf/4.1.2/../../../../nios2-elf/lib\libc.a(lib_a-callocr.o)
                              f:/quatus/nios2eds/bin/gnu/h-i686-mingw32/bin/../lib/gcc/nios2-elf/4.1.2/../../../../nios2-elf/lib\libc.a(lib_a-mprec.o) (_calloc_r)
f:/quatus/nios2eds/bin/gnu/h-i686-mingw32/bin/../lib/gcc/nios2-elf/4.1.2/../../../../nios2-elf/lib\libc.a(lib_a-closer.o)
                              f:/quatus/nios2eds/bin/gnu/h-i686-mingw32/bin/../lib/gcc/nios2-elf/4.1.2/../../../../nios2-elf/lib\libc.a(lib_a-stdio.o) (_close_r)
f:/quatus/nios2eds/bin/gnu/h-i686-mingw32/bin/../lib/gcc/nios2-elf/4.1.2/../../../../nios2-elf/lib\libc.a(lib_a-fclose.o)
                              f:/quatus/nios2eds/bin/gnu/h-i686-mingw32/bin/../lib/gcc/nios2-elf/4.1.2/../../../../nios2-elf/lib\libc.a(lib_a-findfp.o) (fclose)
f:/quatus/nios2eds/bin/gnu/h-i686-mingw32/bin/../lib/gcc/nios2-elf/4.1.2/../../../../nios2-elf/lib\libc.a(lib_a-fstatr.o)
                              f:/quatus/nios2eds/bin/gnu/h-i686-mingw32/bin/../lib/gcc/nios2-elf/4.1.2/../../../../nios2-elf/lib\libc.a(lib_a-makebuf.o) (_fstat_r)
f:/quatus/nios2eds/bin/gnu/h-i686-mingw32/bin/../lib/gcc/nios2-elf/4.1.2/../../../../nios2-elf/lib\libc.a(lib_a-int_errno.o)
                              f:/quatus/nios2eds/bin/gnu/h-i686-mingw32/bin/../lib/gcc/nios2-elf/4.1.2/../../../../nios2-elf/lib\libc.a(lib_a-sbrkr.o) (errno)
f:/quatus/nios2eds/bin/gnu/h-i686-mingw32/bin/../lib/gcc/nios2-elf/4.1.2/../../../../nios2-elf/lib\libc.a(lib_a-isattyr.o)
                              f:/quatus/nios2eds/bin/gnu/h-i686-mingw32/bin/../lib/gcc/nios2-elf/4.1.2/../../../../nios2-elf/lib\libc.a(lib_a-makebuf.o) (_isatty_r)
f:/quatus/nios2eds/bin/gnu/h-i686-mingw32/bin/../lib/gcc/nios2-elf/4.1.2/../../../../nios2-elf/lib\libc.a(lib_a-lseekr.o)
                              f:/quatus/nios2eds/bin/gnu/h-i686-mingw32/bin/../lib/gcc/nios2-elf/4.1.2/../../../../nios2-elf/lib\libc.a(lib_a-stdio.o) (_lseek_r)
f:/quatus/nios2eds/bin/gnu/h-i686-mingw32/bin/../lib/gcc/nios2-elf/4.1.2/../../../../nios2-elf/lib\libc.a(lib_a-readr.o)
                              f:/quatus/nios2eds/bin/gnu/h-i686-mingw32/bin/../lib/gcc/nios2-elf/4.1.2/../../../../nios2-elf/lib\libc.a(lib_a-stdio.o) (_read_r)
f:/quatus/nios2eds/bin/gnu/h-i686-mingw32/bin/../lib/gcc/nios2-elf/4.1.2\libgcc.a(_udivdi3.o)
                              f:/quatus/nios2eds/bin/gnu/h-i686-mingw32/bin/../lib/gcc/nios2-elf/4.1.2/../../../../nios2-elf/lib\libc.a(lib_a-vfprintf.o) (__udivdi3)
f:/quatus/nios2eds/bin/gnu/h-i686-mingw32/bin/../lib/gcc/nios2-elf/4.1.2\libgcc.a(_umoddi3.o)
                              f:/quatus/nios2eds/bin/gnu/h-i686-mingw32/bin/../lib/gcc/nios2-elf/4.1.2/../../../../nios2-elf/lib\libc.a(lib_a-vfprintf.o) (__umoddi3)
f:/quatus/nios2eds/bin/gnu/h-i686-mingw32/bin/../lib/gcc/nios2-elf/4.1.2\libgcc.a(_addsub_df.o)
                              f:/quatus/nios2eds/bin/gnu/h-i686-mingw32/bin/../lib/gcc/nios2-elf/4.1.2/../../../../nios2-elf/lib\libc.a(lib_a-dtoa.o) (__subdf3)
f:/quatus/nios2eds/bin/gnu/h-i686-mingw32/bin/../lib/gcc/nios2-elf/4.1.2\libgcc.a(_mul_df.o)
                              f:/quatus/nios2eds/bin/gnu/h-i686-mingw32/bin/../lib/gcc/nios2-elf/4.1.2/../../../../nios2-elf/lib\libc.a(lib_a-dtoa.o) (__muldf3)
f:/quatus/nios2eds/bin/gnu/h-i686-mingw32/bin/../lib/gcc/nios2-elf/4.1.2\libgcc.a(_div_df.o)
                              f:/quatus/nios2eds/bin/gnu/h-i686-mingw32/bin/../lib/gcc/nios2-elf/4.1.2/../../../../nios2-elf/lib\libc.a(lib_a-dtoa.o) (__divdf3)
f:/quatus/nios2eds/bin/gnu/h-i686-mingw32/bin/../lib/gcc/nios2-elf/4.1.2\libgcc.a(_eq_df.o)
                              f:/quatus/nios2eds/bin/gnu/h-i686-mingw32/bin/../lib/gcc/nios2-elf/4.1.2/../../../../nios2-elf/lib\libc.a(lib_a-vfprintf.o) (__eqdf2)
f:/quatus/nios2eds/bin/gnu/h-i686-mingw32/bin/../lib/gcc/nios2-elf/4.1.2\libgcc.a(_ne_df.o)
                              f:/quatus/nios2eds/bin/gnu/h-i686-mingw32/bin/../lib/gcc/nios2-elf/4.1.2/../../../../nios2-elf/lib\libc.a(lib_a-vfprintf.o) (__nedf2)
f:/quatus/nios2eds/bin/gnu/h-i686-mingw32/bin/../lib/gcc/nios2-elf/4.1.2\libgcc.a(_gt_df.o)
                              f:/quatus/nios2eds/bin/gnu/h-i686-mingw32/bin/../lib/gcc/nios2-elf/4.1.2/../../../../nios2-elf/lib\libc.a(lib_a-dtoa.o) (__gtdf2)
f:/quatus/nios2eds/bin/gnu/h-i686-mingw32/bin/../lib/gcc/nios2-elf/4.1.2\libgcc.a(_ge_df.o)
                              f:/quatus/nios2eds/bin/gnu/h-i686-mingw32/bin/../lib/gcc/nios2-elf/4.1.2/../../../../nios2-elf/lib\libc.a(lib_a-dtoa.o) (__gedf2)
f:/quatus/nios2eds/bin/gnu/h-i686-mingw32/bin/../lib/gcc/nios2-elf/4.1.2\libgcc.a(_lt_df.o)
                              f:/quatus/nios2eds/bin/gnu/h-i686-mingw32/bin/../lib/gcc/nios2-elf/4.1.2/../../../../nios2-elf/lib\libc.a(lib_a-vfprintf.o) (__ltdf2)
f:/quatus/nios2eds/bin/gnu/h-i686-mingw32/bin/../lib/gcc/nios2-elf/4.1.2\libgcc.a(_si_to_df.o)
                              f:/quatus/nios2eds/bin/gnu/h-i686-mingw32/bin/../lib/gcc/nios2-elf/4.1.2/../../../../nios2-elf/lib\libc.a(lib_a-dtoa.o) (__floatsidf)
f:/quatus/nios2eds/bin/gnu/h-i686-mingw32/bin/../lib/gcc/nios2-elf/4.1.2\libgcc.a(_df_to_si.o)
                              f:/quatus/nios2eds/bin/gnu/h-i686-mingw32/bin/../lib/gcc/nios2-elf/4.1.2/../../../../nios2-elf/lib\libc.a(lib_a-dtoa.o) (__fixdfsi)
f:/quatus/nios2eds/bin/gnu/h-i686-mingw32/bin/../lib/gcc/nios2-elf/4.1.2\libgcc.a(_thenan_df.o)
                              f:/quatus/nios2eds/bin/gnu/h-i686-mingw32/bin/../lib/gcc/nios2-elf/4.1.2\libgcc.a(_addsub_df.o) (__thenan_df)
f:/quatus/nios2eds/bin/gnu/h-i686-mingw32/bin/../lib/gcc/nios2-elf/4.1.2\libgcc.a(_usi_to_df.o)
                              f:/quatus/nios2eds/bin/gnu/h-i686-mingw32/bin/../lib/gcc/nios2-elf/4.1.2/../../../../nios2-elf/lib\libc.a(lib_a-dtoa.o) (__floatunsidf)
f:/quatus/nios2eds/bin/gnu/h-i686-mingw32/bin/../lib/gcc/nios2-elf/4.1.2\libgcc.a(_clz.o)
                              f:/quatus/nios2eds/bin/gnu/h-i686-mingw32/bin/../lib/gcc/nios2-elf/4.1.2\libgcc.a(_udivdi3.o) (__clz_tab)
f:/quatus/nios2eds/bin/gnu/h-i686-mingw32/bin/../lib/gcc/nios2-elf/4.1.2\libgcc.a(_clzsi2.o)
                              f:/quatus/nios2eds/bin/gnu/h-i686-mingw32/bin/../lib/gcc/nios2-elf/4.1.2\libgcc.a(_si_to_df.o) (__clzsi2)
f:/quatus/nios2eds/bin/gnu/h-i686-mingw32/bin/../lib/gcc/nios2-elf/4.1.2\libgcc.a(_pack_df.o)
                              f:/quatus/nios2eds/bin/gnu/h-i686-mingw32/bin/../lib/gcc/nios2-elf/4.1.2\libgcc.a(_addsub_df.o) (__pack_d)
f:/quatus/nios2eds/bin/gnu/h-i686-mingw32/bin/../lib/gcc/nios2-elf/4.1.2\libgcc.a(_unpack_df.o)
                              f:/quatus/nios2eds/bin/gnu/h-i686-mingw32/bin/../lib/gcc/nios2-elf/4.1.2\libgcc.a(_addsub_df.o) (__unpack_d)
f:/quatus/nios2eds/bin/gnu/h-i686-mingw32/bin/../lib/gcc/nios2-elf/4.1.2\libgcc.a(_fpcmp_parts_df.o)
                              f:/quatus/nios2eds/bin/gnu/h-i686-mingw32/bin/../lib/gcc/nios2-elf/4.1.2\libgcc.a(_eq_df.o) (__fpcmp_parts_d)
../homework_bsp/\libhal_bsp.a(alt_close.o)
                              f:/quatus/nios2eds/bin/gnu/h-i686-mingw32/bin/../lib/gcc/nios2-elf/4.1.2/../../../../nios2-elf/lib\libc.a(lib_a-closer.o) (close)
../homework_bsp/\libhal_bsp.a(alt_dev.o)
                              ../homework_bsp/\libhal_bsp.a(alt_close.o) (alt_fd_list)
../homework_bsp/\libhal_bsp.a(alt_errno.o)
                              ../homework_bsp/\libhal_bsp.a(alt_close.o) (alt_errno)
../homework_bsp/\libhal_bsp.a(alt_fstat.o)
                              f:/quatus/nios2eds/bin/gnu/h-i686-mingw32/bin/../lib/gcc/nios2-elf/4.1.2/../../../../nios2-elf/lib\libc.a(lib_a-fstatr.o) (fstat)
../homework_bsp/\libhal_bsp.a(alt_irq_register.o)
                              obj/default/pio.o (alt_irq_register)
../homework_bsp/\libhal_bsp.a(alt_irq_vars.o)
                              ../homework_bsp/\libhal_bsp.a(alt_irq_register.o) (alt_irq_active)
../homework_bsp/\libhal_bsp.a(alt_isatty.o)
                              f:/quatus/nios2eds/bin/gnu/h-i686-mingw32/bin/../lib/gcc/nios2-elf/4.1.2/../../../../nios2-elf/lib\libc.a(lib_a-isattyr.o) (isatty)
../homework_bsp/\libhal_bsp.a(alt_load.o)
                              ../homework_bsp//obj/HAL/src/crt0.o (alt_load)
../homework_bsp/\libhal_bsp.a(alt_lseek.o)
                              f:/quatus/nios2eds/bin/gnu/h-i686-mingw32/bin/../lib/gcc/nios2-elf/4.1.2/../../../../nios2-elf/lib\libc.a(lib_a-lseekr.o) (lseek)
../homework_bsp/\libhal_bsp.a(alt_main.o)
                              ../homework_bsp//obj/HAL/src/crt0.o (alt_main)
../homework_bsp/\libhal_bsp.a(alt_malloc_lock.o)
                              f:/quatus/nios2eds/bin/gnu/h-i686-mingw32/bin/../lib/gcc/nios2-elf/4.1.2/../../../../nios2-elf/lib\libc.a(lib_a-freer.o) (__malloc_lock)
../homework_bsp/\libhal_bsp.a(alt_read.o)
                              f:/quatus/nios2eds/bin/gnu/h-i686-mingw32/bin/../lib/gcc/nios2-elf/4.1.2/../../../../nios2-elf/lib\libc.a(lib_a-readr.o) (read)
../homework_bsp/\libhal_bsp.a(alt_release_fd.o)
                              ../homework_bsp/\libhal_bsp.a(alt_close.o) (alt_release_fd)
../homework_bsp/\libhal_bsp.a(alt_sbrk.o)
                              f:/quatus/nios2eds/bin/gnu/h-i686-mingw32/bin/../lib/gcc/nios2-elf/4.1.2/../../../../nios2-elf/lib\libc.a(lib_a-sbrkr.o) (sbrk)
../homework_bsp/\libhal_bsp.a(alt_write.o)
                              f:/quatus/nios2eds/bin/gnu/h-i686-mingw32/bin/../lib/gcc/nios2-elf/4.1.2/../../../../nios2-elf/lib\libc.a(lib_a-writer.o) (write)
../homework_bsp/\libhal_bsp.a(alt_sys_init.o)
                              ../homework_bsp/\libhal_bsp.a(alt_main.o) (alt_irq_init)
../homework_bsp/\libhal_bsp.a(altera_avalon_dma.o)
                              ../homework_bsp/\libhal_bsp.a(alt_sys_init.o) (alt_avalon_dma_launch_bidir)
../homework_bsp/\libhal_bsp.a(altera_avalon_jtag_uart_fd.o)
                              ../homework_bsp/\libhal_bsp.a(alt_sys_init.o) (altera_avalon_jtag_uart_read_fd)
../homework_bsp/\libhal_bsp.a(altera_avalon_jtag_uart_init.o)
                              ../homework_bsp/\libhal_bsp.a(alt_sys_init.o) (altera_avalon_jtag_uart_init)
../homework_bsp/\libhal_bsp.a(altera_avalon_jtag_uart_ioctl.o)
                              ../homework_bsp/\libhal_bsp.a(altera_avalon_jtag_uart_fd.o) (altera_avalon_jtag_uart_ioctl)
../homework_bsp/\libhal_bsp.a(altera_avalon_jtag_uart_read.o)
                              ../homework_bsp/\libhal_bsp.a(altera_avalon_jtag_uart_fd.o) (altera_avalon_jtag_uart_read)
../homework_bsp/\libhal_bsp.a(altera_avalon_jtag_uart_write.o)
                              ../homework_bsp/\libhal_bsp.a(altera_avalon_jtag_uart_fd.o) (altera_avalon_jtag_uart_write)
../homework_bsp/\libhal_bsp.a(altera_avalon_timer_vars.o)
                              ../homework_bsp/\libhal_bsp.a(alt_sys_init.o) (altera_avalon_timer_ts_base)
../homework_bsp/\libhal_bsp.a(altera_avalon_uart_fd.o)
                              ../homework_bsp/\libhal_bsp.a(alt_sys_init.o) (altera_avalon_uart_read_fd)
../homework_bsp/\libhal_bsp.a(altera_avalon_uart_init.o)
                              ../homework_bsp/\libhal_bsp.a(alt_sys_init.o) (altera_avalon_uart_init)
../homework_bsp/\libhal_bsp.a(altera_avalon_uart_read.o)
                              ../homework_bsp/\libhal_bsp.a(altera_avalon_uart_fd.o) (altera_avalon_uart_read)
../homework_bsp/\libhal_bsp.a(altera_avalon_uart_write.o)
                              ../homework_bsp/\libhal_bsp.a(altera_avalon_uart_fd.o) (altera_avalon_uart_write)
../homework_bsp/\libhal_bsp.a(alt_alarm_start.o)
                              ../homework_bsp/\libhal_bsp.a(altera_avalon_jtag_uart_init.o) (alt_alarm_start)
../homework_bsp/\libhal_bsp.a(alt_dcache_flush_all.o)
                              ../homework_bsp/\libhal_bsp.a(alt_load.o) (alt_dcache_flush_all)
../homework_bsp/\libhal_bsp.a(alt_dev_llist_insert.o)
                              ../homework_bsp/\libhal_bsp.a(alt_sys_init.o) (alt_dev_llist_insert)
../homework_bsp/\libhal_bsp.a(alt_dma_rxchan_open.o)
                              ../homework_bsp/\libhal_bsp.a(altera_avalon_dma.o) (alt_dma_rxchan_list)
../homework_bsp/\libhal_bsp.a(alt_dma_txchan_open.o)
                              ../homework_bsp/\libhal_bsp.a(altera_avalon_dma.o) (alt_dma_txchan_list)
../homework_bsp/\libhal_bsp.a(alt_do_ctors.o)
                              ../homework_bsp/\libhal_bsp.a(alt_main.o) (_do_ctors)
../homework_bsp/\libhal_bsp.a(alt_do_dtors.o)
                              ../homework_bsp/\libhal_bsp.a(alt_main.o) (_do_dtors)
../homework_bsp/\libhal_bsp.a(alt_find_dev.o)
                              ../homework_bsp/\libhal_bsp.a(alt_dma_rxchan_open.o) (alt_find_dev)
../homework_bsp/\libhal_bsp.a(alt_icache_flush_all.o)
                              ../homework_bsp/\libhal_bsp.a(alt_load.o) (alt_icache_flush_all)
../homework_bsp/\libhal_bsp.a(alt_iic.o)
                              ../homework_bsp/\libhal_bsp.a(altera_avalon_dma.o) (alt_ic_isr_register)
../homework_bsp/\libhal_bsp.a(alt_iic_isr_register.o)
                              ../homework_bsp/\libhal_bsp.a(alt_iic.o) (alt_iic_isr_register)
../homework_bsp/\libhal_bsp.a(alt_io_redirect.o)
                              ../homework_bsp/\libhal_bsp.a(alt_main.o) (alt_io_redirect)
../homework_bsp/\libhal_bsp.a(alt_irq_entry.o)
                              ../homework_bsp/\libhal_bsp.a(alt_irq_register.o) (alt_irq_entry)
../homework_bsp/\libhal_bsp.a(alt_irq_handler.o)
                              ../homework_bsp/\libhal_bsp.a(alt_irq_register.o) (alt_irq_handler)
../homework_bsp/\libhal_bsp.a(alt_open.o)
                              ../homework_bsp/\libhal_bsp.a(alt_io_redirect.o) (open)
../homework_bsp/\libhal_bsp.a(alt_tick.o)
                              ../homework_bsp/\libhal_bsp.a(altera_avalon_jtag_uart_init.o) (_alt_tick_rate)
../homework_bsp/\libhal_bsp.a(altera_nios2_qsys_irq.o)
                              ../homework_bsp/\libhal_bsp.a(alt_sys_init.o) (altera_nios2_qsys_irq_init)
../homework_bsp/\libhal_bsp.a(alt_exception_entry.o)
                              ../homework_bsp/\libhal_bsp.a(alt_irq_entry.o) (alt_exception)
../homework_bsp/\libhal_bsp.a(alt_find_file.o)
                              ../homework_bsp/\libhal_bsp.a(alt_open.o) (alt_find_file)
../homework_bsp/\libhal_bsp.a(alt_get_fd.o)
                              ../homework_bsp/\libhal_bsp.a(alt_open.o) (alt_get_fd)
../homework_bsp/\libhal_bsp.a(alt_icache_flush.o)
                              ../homework_bsp/\libhal_bsp.a(alt_icache_flush_all.o) (alt_icache_flush)
f:/quatus/nios2eds/bin/gnu/h-i686-mingw32/bin/../lib/gcc/nios2-elf/4.1.2/../../../../nios2-elf/lib\libc.a(lib_a-atexit.o)
                              ../homework_bsp/\libhal_bsp.a(alt_main.o) (atexit)
f:/quatus/nios2eds/bin/gnu/h-i686-mingw32/bin/../lib/gcc/nios2-elf/4.1.2/../../../../nios2-elf/lib\libc.a(lib_a-exit.o)
                              ../homework_bsp/\libhal_bsp.a(alt_main.o) (exit)
f:/quatus/nios2eds/bin/gnu/h-i686-mingw32/bin/../lib/gcc/nios2-elf/4.1.2/../../../../nios2-elf/lib\libc.a(lib_a-memcmp.o)
                              ../homework_bsp/\libhal_bsp.a(alt_find_dev.o) (memcmp)
f:/quatus/nios2eds/bin/gnu/h-i686-mingw32/bin/../lib/gcc/nios2-elf/4.1.2/../../../../nios2-elf/lib\libc.a(lib_a-__atexit.o)
                              f:/quatus/nios2eds/bin/gnu/h-i686-mingw32/bin/../lib/gcc/nios2-elf/4.1.2/../../../../nios2-elf/lib\libc.a(lib_a-atexit.o) (__register_exitproc)
f:/quatus/nios2eds/bin/gnu/h-i686-mingw32/bin/../lib/gcc/nios2-elf/4.1.2/../../../../nios2-elf/lib\libc.a(lib_a-__call_atexit.o)
                              f:/quatus/nios2eds/bin/gnu/h-i686-mingw32/bin/../lib/gcc/nios2-elf/4.1.2/../../../../nios2-elf/lib\libc.a(lib_a-exit.o) (__call_exitprocs)
../homework_bsp/\libhal_bsp.a(alt_exit.o)
                              f:/quatus/nios2eds/bin/gnu/h-i686-mingw32/bin/../lib/gcc/nios2-elf/4.1.2/../../../../nios2-elf/lib\libc.a(lib_a-exit.o) (_exit)

Allocating common symbols
Common symbol       size              file

alt_irq             0x100             ../homework_bsp/\libhal_bsp.a(alt_irq_handler.o)
errno               0x4               f:/quatus/nios2eds/bin/gnu/h-i686-mingw32/bin/../lib/gcc/nios2-elf/4.1.2/../../../../nios2-elf/lib\libc.a(lib_a-int_errno.o)
_atexit0            0x190             f:/quatus/nios2eds/bin/gnu/h-i686-mingw32/bin/../lib/gcc/nios2-elf/4.1.2/../../../../nios2-elf/lib\libc.a(lib_a-atexit.o)

Memory Configuration

Name             Origin             Length             Attributes
reset            0x02000000         0x00000020
sdram_ctrl       0x02000020         0x01ffffe0
*default*        0x00000000         0xffffffff

Linker script and memory map

LOAD ../homework_bsp//obj/HAL/src/crt0.o
LOAD obj/default/hello_world.o
LOAD obj/default/pio.o
LOAD obj/default/timebt.o
LOAD f:/quatus/nios2eds/bin/gnu/h-i686-mingw32/bin/../lib/gcc/nios2-elf/4.1.2/../../../../nios2-elf/lib\libstdc++.a
LOAD f:/quatus/nios2eds/bin/gnu/h-i686-mingw32/bin/../lib/gcc/nios2-elf/4.1.2/../../../../nios2-elf/lib\libm.a
LOAD f:/quatus/nios2eds/bin/gnu/h-i686-mingw32/bin/../lib/gcc/nios2-elf/4.1.2\libgcc.a
START GROUP
LOAD f:/quatus/nios2eds/bin/gnu/h-i686-mingw32/bin/../lib/gcc/nios2-elf/4.1.2/../../../../nios2-elf/lib\libc.a
LOAD f:/quatus/nios2eds/bin/gnu/h-i686-mingw32/bin/../lib/gcc/nios2-elf/4.1.2\libgcc.a
LOAD ../homework_bsp/\libhal_bsp.a
END GROUP
LOAD f:/quatus/nios2eds/bin/gnu/h-i686-mingw32/bin/../lib/gcc/nios2-elf/4.1.2\libgcc.a
                0x02000000                __alt_mem_sdram_ctrl = 0x2000000

.entry          0x02000000       0x20
 *(.entry)
 .entry         0x02000000       0x20 ../homework_bsp//obj/HAL/src/crt0.o
                0x02000000                __reset

.exceptions     0x02000020      0x194
                0x02000020                PROVIDE (__ram_exceptions_start, ABSOLUTE (.))
                0x02000020                . = ALIGN (0x20)
 *(.irq)
 *(.exceptions.entry.label)
 .exceptions.entry.label
                0x02000020        0x0 ../homework_bsp/\libhal_bsp.a(alt_irq_entry.o)
                0x02000020                alt_irq_entry
 .exceptions.entry.label
                0x02000020        0x0 ../homework_bsp/\libhal_bsp.a(alt_exception_entry.o)
                0x02000020                alt_exception
 *(.exceptions.entry.user)
 *(.exceptions.entry)
 .exceptions.entry
                0x02000020       0x54 ../homework_bsp/\libhal_bsp.a(alt_exception_entry.o)
 *(.exceptions.irqtest.user)
 *(.exceptions.irqtest)
 .exceptions.irqtest
                0x02000074       0x10 ../homework_bsp/\libhal_bsp.a(alt_irq_entry.o)
 *(.exceptions.irqhandler.user)
 *(.exceptions.irqhandler)
 .exceptions.irqhandler
                0x02000084        0x4 ../homework_bsp/\libhal_bsp.a(alt_irq_entry.o)
 *(.exceptions.irqreturn.user)
 *(.exceptions.irqreturn)
 .exceptions.irqreturn
                0x02000088        0x4 ../homework_bsp/\libhal_bsp.a(alt_irq_entry.o)
 *(.exceptions.notirq.label)
 .exceptions.notirq.label
                0x0200008c        0x0 ../homework_bsp/\libhal_bsp.a(alt_irq_entry.o)
 *(.exceptions.notirq.user)
 *(.exceptions.notirq)
 .exceptions.notirq
                0x0200008c        0x8 ../homework_bsp/\libhal_bsp.a(alt_exception_entry.o)
 *(.exceptions.soft.user)
 *(.exceptions.soft)
 *(.exceptions.unknown.user)
 *(.exceptions.unknown)
 .exceptions.unknown
                0x02000094        0x4 ../homework_bsp/\libhal_bsp.a(alt_exception_entry.o)
 *(.exceptions.exit.label)
 .exceptions.exit.label
                0x02000098        0x0 ../homework_bsp/\libhal_bsp.a(alt_irq_entry.o)
 .exceptions.exit.label
                0x02000098        0x0 ../homework_bsp/\libhal_bsp.a(alt_exception_entry.o)
 *(.exceptions.exit.user)
 *(.exceptions.exit)
 .exceptions.exit
                0x02000098       0x54 ../homework_bsp/\libhal_bsp.a(alt_exception_entry.o)
 *(.exceptions)
 .exceptions    0x020000ec       0xc8 ../homework_bsp/\libhal_bsp.a(alt_irq_handler.o)
                0x020000ec                alt_irq_handler
                0x020001b4                PROVIDE (__ram_exceptions_end, ABSOLUTE (.))
                0x02000020                PROVIDE (__flash_exceptions_start, LOADADDR (.exceptions))

.text           0x020001b4     0xe9c8
                0x020001b4                PROVIDE (stext, ABSOLUTE (.))
 *(.interp)
 *(.hash)
 *(.dynsym)
 *(.dynstr)
 *(.gnu.version)
 *(.gnu.version_d)
 *(.gnu.version_r)
 *(.rel.init)
 *(.rela.init)
 *(.rel.text .rel.text.* .rel.gnu.linkonce.t.*)
 *(.rela.text .rela.text.* .rela.gnu.linkonce.t.*)
 *(.rel.fini)
 *(.rela.fini)
 *(.rel.rodata .rel.rodata.* .rel.gnu.linkonce.r.*)
 *(.rela.rodata .rela.rodata.* .rela.gnu.linkonce.r.*)
 *(.rel.data .rel.data.* .rel.gnu.linkonce.d.*)
 *(.rela.data .rela.data.* .rela.gnu.linkonce.d.*)
 *(.rel.tdata .rel.tdata.* .rel.gnu.linkonce.td.*)
 *(.rela.tdata .rela.tdata.* .rela.gnu.linkonce.td.*)
 *(.rel.tbss .rel.tbss.* .rel.gnu.linkonce.tb.*)
 *(.rela.tbss .rela.tbss.* .rela.gnu.linkonce.tb.*)
 *(.rel.ctors)
 *(.rela.ctors)
 *(.rel.dtors)
 *(.rela.dtors)
 *(.rel.got)
 *(.rela.got)
 *(.rel.sdata .rel.sdata.* .rel.gnu.linkonce.s.*)
 *(.rela.sdata .rela.sdata.* .rela.gnu.linkonce.s.*)
 *(.rel.sbss .rel.sbss.* .rel.gnu.linkonce.sb.*)
 *(.rela.sbss .rela.sbss.* .rela.gnu.linkonce.sb.*)
 *(.rel.sdata2 .rel.sdata2.* .rel.gnu.linkonce.s2.*)
 *(.rela.sdata2 .rela.sdata2.* .rela.gnu.linkonce.s2.*)
 *(.rel.sbss2 .rel.sbss2.* .rel.gnu.linkonce.sb2.*)
 *(.rela.sbss2 .rela.sbss2.* .rela.gnu.linkonce.sb2.*)
 *(.rel.bss .rel.bss.* .rel.gnu.linkonce.b.*)
 *(.rela.bss .rela.bss.* .rela.gnu.linkonce.b.*)
 *(.rel.plt)
 *(.rela.plt)
 *(.rel.dyn)
 *(.init)
 *(.plt)
 *(.text .stub .text.* .gnu.linkonce.t.*)
 .text          0x020001b4       0x4c ../homework_bsp//obj/HAL/src/crt0.o
                0x020001b4                _start
 .text          0x02000200      0x2a4 obj/default/hello_world.o
                0x02000200                main
 .text          0x020004a4      0x1c0 obj/default/pio.o
                0x020004a4                DoEnablePIOInterrupt
                0x0200052c                DoDisablePIOInterrupt
                0x02000584                PIOISRInitial
                0x02000618                PIOISR
 .text          0x02000664      0x5c4 obj/default/timebt.o
                0x02000664                SetupTimer
                0x020006e4                timer
                0x02000950                isrbt
                0x02000a7c                hexdecode
 .text          0x02000c28      0x1e0 f:/quatus/nios2eds/bin/gnu/h-i686-mingw32/bin/../lib/gcc/nios2-elf/4.1.2\libgcc.a(_mul_sf.o)
                0x02000c28                __mulsf3
 .text          0x02000e08       0x94 f:/quatus/nios2eds/bin/gnu/h-i686-mingw32/bin/../lib/gcc/nios2-elf/4.1.2\libgcc.a(_sf_to_si.o)
                0x02000e08                __fixsfsi
 .text          0x02000e9c        0x0 f:/quatus/nios2eds/bin/gnu/h-i686-mingw32/bin/../lib/gcc/nios2-elf/4.1.2\libgcc.a(_thenan_sf.o)
 .text          0x02000e9c      0x14c f:/quatus/nios2eds/bin/gnu/h-i686-mingw32/bin/../lib/gcc/nios2-elf/4.1.2\libgcc.a(lib2-divmod.o)
                0x02000f18                __divsi3
                0x02000f78                __modsi3
                0x02000fd8                __udivsi3
                0x02000fe0                __umodsi3
 .text          0x02000fe8       0x98 f:/quatus/nios2eds/bin/gnu/h-i686-mingw32/bin/../lib/gcc/nios2-elf/4.1.2\libgcc.a(_muldi3.o)
                0x02000fe8                __muldi3
 .text          0x02001080      0x160 f:/quatus/nios2eds/bin/gnu/h-i686-mingw32/bin/../lib/gcc/nios2-elf/4.1.2\libgcc.a(_pack_sf.o)
                0x02001080                __pack_f
 .text          0x020011e0       0xc8 f:/quatus/nios2eds/bin/gnu/h-i686-mingw32/bin/../lib/gcc/nios2-elf/4.1.2\libgcc.a(_unpack_sf.o)
                0x020011e0                __unpack_f
 .text          0x020012a8       0x78 f:/quatus/nios2eds/bin/gnu/h-i686-mingw32/bin/../lib/gcc/nios2-elf/4.1.2/../../../../nios2-elf/lib\libc.a(lib_a-printf.o)
                0x020012a8                printf
                0x020012ec                _printf_r
 .text          0x02001320       0xb4 f:/quatus/nios2eds/bin/gnu/h-i686-mingw32/bin/../lib/gcc/nios2-elf/4.1.2/../../../../nios2-elf/lib\libc.a(lib_a-puts.o)
                0x02001320                _puts_r
                0x020013c0                puts
 .text          0x020013d4       0x74 f:/quatus/nios2eds/bin/gnu/h-i686-mingw32/bin/../lib/gcc/nios2-elf/4.1.2/../../../../nios2-elf/lib\libc.a(lib_a-strlen.o)
                0x020013d4                strlen
 .text          0x02001448     0x1f28 f:/quatus/nios2eds/bin/gnu/h-i686-mingw32/bin/../lib/gcc/nios2-elf/4.1.2/../../../../nios2-elf/lib\libc.a(lib_a-vfprintf.o)
                0x020014a0                ___vfprintf_internal_r
                0x0200334c                __vfprintf_internal
 .text          0x02003370      0x13c f:/quatus/nios2eds/bin/gnu/h-i686-mingw32/bin/../lib/gcc/nios2-elf/4.1.2/../../../../nios2-elf/lib\libc.a(lib_a-wsetup.o)
                0x02003370                __swsetup_r
 .text          0x020034ac     0x17cc f:/quatus/nios2eds/bin/gnu/h-i686-mingw32/bin/../lib/gcc/nios2-elf/4.1.2/../../../../nios2-elf/lib\libc.a(lib_a-dtoa.o)
                0x020036c4                _dtoa_r
 .text          0x02004c78      0x230 f:/quatus/nios2eds/bin/gnu/h-i686-mingw32/bin/../lib/gcc/nios2-elf/4.1.2/../../../../nios2-elf/lib\libc.a(lib_a-fflush.o)
                0x02004c78                _fflush_r
                0x02004e74                fflush
 .text          0x02004ea8      0x2c0 f:/quatus/nios2eds/bin/gnu/h-i686-mingw32/bin/../lib/gcc/nios2-elf/4.1.2/../../../../nios2-elf/lib\libc.a(lib_a-findfp.o)
                0x02004f00                __sfp_lock_acquire
                0x02004f04                __sfp_lock_release
                0x02004f08                __sinit_lock_acquire
                0x02004f0c                __sinit_lock_release
                0x02004f10                __sinit
                0x02004fc4                __fp_unlock_all
                0x02004fdc                __fp_lock_all
                0x02004ff4                _cleanup_r
                0x02005000                _cleanup
                0x02005010                __sfmoreglue
                0x02005078                __sfp
 .text          0x02005168      0x440 f:/quatus/nios2eds/bin/gnu/h-i686-mingw32/bin/../lib/gcc/nios2-elf/4.1.2/../../../../nios2-elf/lib\libc.a(lib_a-freer.o)
                0x02005168                _malloc_trim_r
                0x02005294                _free_r
 .text          0x020055a8      0x49c f:/quatus/nios2eds/bin/gnu/h-i686-mingw32/bin/../lib/gcc/nios2-elf/4.1.2/../../../../nios2-elf/lib\libc.a(lib_a-fvwrite.o)
                0x020055a8                __sfvwrite_r
 .text          0x02005a44      0x180 f:/quatus/nios2eds/bin/gnu/h-i686-mingw32/bin/../lib/gcc/nios2-elf/4.1.2/../../../../nios2-elf/lib\libc.a(lib_a-fwalk.o)
                0x02005a44                _fwalk_reent
                0x02005b0c                _fwalk
 .text          0x02005bc4        0x0 f:/quatus/nios2eds/bin/gnu/h-i686-mingw32/bin/../lib/gcc/nios2-elf/4.1.2/../../../../nios2-elf/lib\libc.a(lib_a-impure.o)
 .text          0x02005bc4       0xc4 f:/quatus/nios2eds/bin/gnu/h-i686-mingw32/bin/../lib/gcc/nios2-elf/4.1.2/../../../../nios2-elf/lib\libc.a(lib_a-locale.o)
                0x02005bc4                __locale_charset
                0x02005bcc                _localeconv_r
                0x02005bd8                localeconv
                0x02005be8                _setlocale_r
                0x02005c6c                setlocale
 .text          0x02005c88      0x194 f:/quatus/nios2eds/bin/gnu/h-i686-mingw32/bin/../lib/gcc/nios2-elf/4.1.2/../../../../nios2-elf/lib\libc.a(lib_a-makebuf.o)
                0x02005c88                __smakebuf_r
 .text          0x02005e1c      0x740 f:/quatus/nios2eds/bin/gnu/h-i686-mingw32/bin/../lib/gcc/nios2-elf/4.1.2/../../../../nios2-elf/lib\libc.a(lib_a-mallocr.o)
                0x02005e1c                _malloc_r
 .text          0x0200655c       0xe4 f:/quatus/nios2eds/bin/gnu/h-i686-mingw32/bin/../lib/gcc/nios2-elf/4.1.2/../../../../nios2-elf/lib\libc.a(lib_a-memchr.o)
                0x0200655c                memchr
 .text          0x02006640       0xa0 f:/quatus/nios2eds/bin/gnu/h-i686-mingw32/bin/../lib/gcc/nios2-elf/4.1.2/../../../../nios2-elf/lib\libc.a(lib_a-memcpy.o)
                0x02006640                memcpy
 .text          0x020066e0       0xe0 f:/quatus/nios2eds/bin/gnu/h-i686-mingw32/bin/../lib/gcc/nios2-elf/4.1.2/../../../../nios2-elf/lib\libc.a(lib_a-memmove.o)
                0x020066e0                memmove
 .text          0x020067c0       0x98 f:/quatus/nios2eds/bin/gnu/h-i686-mingw32/bin/../lib/gcc/nios2-elf/4.1.2/../../../../nios2-elf/lib\libc.a(lib_a-memset.o)
                0x020067c0                memset
 .text          0x02006858      0xff4 f:/quatus/nios2eds/bin/gnu/h-i686-mingw32/bin/../lib/gcc/nios2-elf/4.1.2/../../../../nios2-elf/lib\libc.a(lib_a-mprec.o)
                0x02006858                _Bfree
                0x02006880                __hi0bits
                0x020068f0                __lo0bits
                0x020069b4                __mcmp
                0x02006a14                __ulp
                0x02006a94                __b2d
                0x02006bb4                __ratio
                0x02006c64                _mprec_log10
                0x02006cf8                __copybits
                0x02006d50                __any_on
                0x02006dd8                _Balloc
                0x02006e94                __d2b
                0x02007010                __mdiff
                0x0200719c                __lshift
                0x020072e8                __multiply
                0x020074d0                __i2b
                0x0200750c                __multadd
                0x0200760c                __pow5mult
                0x0200772c                __s2b
 .text          0x0200784c      0x5f4 f:/quatus/nios2eds/bin/gnu/h-i686-mingw32/bin/../lib/gcc/nios2-elf/4.1.2/../../../../nios2-elf/lib\libc.a(lib_a-reallocr.o)
                0x0200784c                _realloc_r
 .text          0x02007e40       0x40 f:/quatus/nios2eds/bin/gnu/h-i686-mingw32/bin/../lib/gcc/nios2-elf/4.1.2/../../../../nios2-elf/lib\libc.a(lib_a-s_isinfd.o)
                0x02007e40                __isinfd
 .text          0x02007e80       0x30 f:/quatus/nios2eds/bin/gnu/h-i686-mingw32/bin/../lib/gcc/nios2-elf/4.1.2/../../../../nios2-elf/lib\libc.a(lib_a-s_isnand.o)
                0x02007e80                __isnand
 .text          0x02007eb0       0x70 f:/quatus/nios2eds/bin/gnu/h-i686-mingw32/bin/../lib/gcc/nios2-elf/4.1.2/../../../../nios2-elf/lib\libc.a(lib_a-sbrkr.o)
                0x02007eb0                _sbrk_r
 .text          0x02007f20      0x14c f:/quatus/nios2eds/bin/gnu/h-i686-mingw32/bin/../lib/gcc/nios2-elf/4.1.2/../../../../nios2-elf/lib\libc.a(lib_a-stdio.o)
                0x02007f20                __sclose
                0x02007f28                __sseek
                0x02007f90                __swrite
                0x0200800c                __sread
 .text          0x0200806c       0xbc f:/quatus/nios2eds/bin/gnu/h-i686-mingw32/bin/../lib/gcc/nios2-elf/4.1.2/../../../../nios2-elf/lib\libc.a(lib_a-strcmp.o)
                0x0200806c                strcmp
 .text          0x02008128       0x78 f:/quatus/nios2eds/bin/gnu/h-i686-mingw32/bin/../lib/gcc/nios2-elf/4.1.2/../../../../nios2-elf/lib\libc.a(lib_a-writer.o)
                0x02008128                _write_r
 .text          0x020081a0       0xb4 f:/quatus/nios2eds/bin/gnu/h-i686-mingw32/bin/../lib/gcc/nios2-elf/4.1.2/../../../../nios2-elf/lib\libc.a(lib_a-callocr.o)
                0x020081a0                _calloc_r
 .text          0x02008254       0x70 f:/quatus/nios2eds/bin/gnu/h-i686-mingw32/bin/../lib/gcc/nios2-elf/4.1.2/../../../../nios2-elf/lib\libc.a(lib_a-closer.o)
                0x02008254                _close_r
 .text          0x020082c4      0x124 f:/quatus/nios2eds/bin/gnu/h-i686-mingw32/bin/../lib/gcc/nios2-elf/4.1.2/../../../../nios2-elf/lib\libc.a(lib_a-fclose.o)
                0x020082c4                _fclose_r
                0x020083d4                fclose
 .text          0x020083e8       0x74 f:/quatus/nios2eds/bin/gnu/h-i686-mingw32/bin/../lib/gcc/nios2-elf/4.1.2/../../../../nios2-elf/lib\libc.a(lib_a-fstatr.o)
                0x020083e8                _fstat_r
 .text          0x0200845c        0x0 f:/quatus/nios2eds/bin/gnu/h-i686-mingw32/bin/../lib/gcc/nios2-elf/4.1.2/../../../../nios2-elf/lib\libc.a(lib_a-int_errno.o)
 .text          0x0200845c       0x70 f:/quatus/nios2eds/bin/gnu/h-i686-mingw32/bin/../lib/gcc/nios2-elf/4.1.2/../../../../nios2-elf/lib\libc.a(lib_a-isattyr.o)
                0x0200845c                _isatty_r
 .text          0x020084cc       0x78 f:/quatus/nios2eds/bin/gnu/h-i686-mingw32/bin/../lib/gcc/nios2-elf/4.1.2/../../../../nios2-elf/lib\libc.a(lib_a-lseekr.o)
                0x020084cc                _lseek_r
 .text          0x02008544       0x78 f:/quatus/nios2eds/bin/gnu/h-i686-mingw32/bin/../lib/gcc/nios2-elf/4.1.2/../../../../nios2-elf/lib\libc.a(lib_a-readr.o)
                0x02008544                _read_r
 .text          0x020085bc      0x5dc f:/quatus/nios2eds/bin/gnu/h-i686-mingw32/bin/../lib/gcc/nios2-elf/4.1.2\libgcc.a(_udivdi3.o)
                0x020085bc                __udivdi3
 .text          0x02008b98      0x5b0 f:/quatus/nios2eds/bin/gnu/h-i686-mingw32/bin/../lib/gcc/nios2-elf/4.1.2\libgcc.a(_umoddi3.o)
                0x02008b98                __umoddi3
 .text          0x02009148      0x504 f:/quatus/nios2eds/bin/gnu/h-i686-mingw32/bin/../lib/gcc/nios2-elf/4.1.2\libgcc.a(_addsub_df.o)
                0x02009558                __subdf3
                0x020095d8                __adddf3
 .text          0x0200964c      0x3c4 f:/quatus/nios2eds/bin/gnu/h-i686-mingw32/bin/../lib/gcc/nios2-elf/4.1.2\libgcc.a(_mul_df.o)
                0x0200964c                __muldf3
 .text          0x02009a10      0x258 f:/quatus/nios2eds/bin/gnu/h-i686-mingw32/bin/../lib/gcc/nios2-elf/4.1.2\libgcc.a(_div_df.o)
                0x02009a10                __divdf3
 .text          0x02009c68       0x88 f:/quatus/nios2eds/bin/gnu/h-i686-mingw32/bin/../lib/gcc/nios2-elf/4.1.2\libgcc.a(_eq_df.o)
                0x02009c68                __eqdf2
 .text          0x02009cf0       0x88 f:/quatus/nios2eds/bin/gnu/h-i686-mingw32/bin/../lib/gcc/nios2-elf/4.1.2\libgcc.a(_ne_df.o)
                0x02009cf0                __nedf2
 .text          0x02009d78       0x88 f:/quatus/nios2eds/bin/gnu/h-i686-mingw32/bin/../lib/gcc/nios2-elf/4.1.2\libgcc.a(_gt_df.o)
                0x02009d78                __gtdf2
 .text          0x02009e00       0x88 f:/quatus/nios2eds/bin/gnu/h-i686-mingw32/bin/../lib/gcc/nios2-elf/4.1.2\libgcc.a(_ge_df.o)
                0x02009e00                __gedf2
 .text          0x02009e88       0x88 f:/quatus/nios2eds/bin/gnu/h-i686-mingw32/bin/../lib/gcc/nios2-elf/4.1.2\libgcc.a(_lt_df.o)
                0x02009e88                __ltdf2
 .text          0x02009f10       0xf8 f:/quatus/nios2eds/bin/gnu/h-i686-mingw32/bin/../lib/gcc/nios2-elf/4.1.2\libgcc.a(_si_to_df.o)
                0x02009f10                __floatsidf
 .text          0x0200a008       0xd8 f:/quatus/nios2eds/bin/gnu/h-i686-mingw32/bin/../lib/gcc/nios2-elf/4.1.2\libgcc.a(_df_to_si.o)
                0x0200a008                __fixdfsi
 .text          0x0200a0e0        0x0 f:/quatus/nios2eds/bin/gnu/h-i686-mingw32/bin/../lib/gcc/nios2-elf/4.1.2\libgcc.a(_thenan_df.o)
 .text          0x0200a0e0      0x194 f:/quatus/nios2eds/bin/gnu/h-i686-mingw32/bin/../lib/gcc/nios2-elf/4.1.2\libgcc.a(_usi_to_df.o)
                0x0200a0e0                __floatunsidf
 .text          0x0200a274        0x0 f:/quatus/nios2eds/bin/gnu/h-i686-mingw32/bin/../lib/gcc/nios2-elf/4.1.2\libgcc.a(_clz.o)
 .text          0x0200a274       0x80 f:/quatus/nios2eds/bin/gnu/h-i686-mingw32/bin/../lib/gcc/nios2-elf/4.1.2\libgcc.a(_clzsi2.o)
                0x0200a274                __clzsi2
 .text          0x0200a2f4      0x314 f:/quatus/nios2eds/bin/gnu/h-i686-mingw32/bin/../lib/gcc/nios2-elf/4.1.2\libgcc.a(_pack_df.o)
                0x0200a2f4                __pack_d
 .text          0x0200a608      0x138 f:/quatus/nios2eds/bin/gnu/h-i686-mingw32/bin/../lib/gcc/nios2-elf/4.1.2\libgcc.a(_unpack_df.o)
                0x0200a608                __unpack_d
 .text          0x0200a740       0xc8 f:/quatus/nios2eds/bin/gnu/h-i686-mingw32/bin/../lib/gcc/nios2-elf/4.1.2\libgcc.a(_fpcmp_parts_df.o)
                0x0200a740                __fpcmp_parts_d
 .text          0x0200a808      0x15c ../homework_bsp/\libhal_bsp.a(alt_close.o)
                0x0200a808                close
 .text          0x0200a964       0x2c ../homework_bsp/\libhal_bsp.a(alt_dev.o)
 .text          0x0200a990        0x0 ../homework_bsp/\libhal_bsp.a(alt_errno.o)
 .text          0x0200a990      0x134 ../homework_bsp/\libhal_bsp.a(alt_fstat.o)
                0x0200a990                fstat
 .text          0x0200aac4      0x1c0 ../homework_bsp/\libhal_bsp.a(alt_irq_register.o)
                0x0200aac4                alt_irq_register
 .text          0x0200ac84        0x0 ../homework_bsp/\libhal_bsp.a(alt_irq_vars.o)
 .text          0x0200ac84      0x120 ../homework_bsp/\libhal_bsp.a(alt_isatty.o)
                0x0200ac84                isatty
 .text          0x0200ada4       0xec ../homework_bsp/\libhal_bsp.a(alt_load.o)
                0x0200ada4                alt_load
 .text          0x0200ae90      0x150 ../homework_bsp/\libhal_bsp.a(alt_lseek.o)
                0x0200ae90                lseek
 .text          0x0200afe0       0x6c ../homework_bsp/\libhal_bsp.a(alt_main.o)
                0x0200afe0                alt_main
 .text          0x0200b04c       0x40 ../homework_bsp/\libhal_bsp.a(alt_malloc_lock.o)
                0x0200b04c                __malloc_lock
                0x0200b06c                __malloc_unlock
 .text          0x0200b08c      0x180 ../homework_bsp/\libhal_bsp.a(alt_read.o)
                0x0200b08c                read
 .text          0x0200b20c       0x60 ../homework_bsp/\libhal_bsp.a(alt_release_fd.o)
                0x0200b20c                alt_release_fd
 .text          0x0200b26c       0xbc ../homework_bsp/\libhal_bsp.a(alt_sbrk.o)
                0x0200b26c                sbrk
 .text          0x0200b328      0x180 ../homework_bsp/\libhal_bsp.a(alt_write.o)
                0x0200b328                write
 .text          0x0200b4a8      0x120 ../homework_bsp/\libhal_bsp.a(alt_sys_init.o)
                0x0200b4a8                alt_irq_init
                0x0200b4dc                alt_sys_init
 .text          0x0200b5c8      0xcac ../homework_bsp/\libhal_bsp.a(altera_avalon_dma.o)
                0x0200b5c8                alt_avalon_dma_launch_bidir
                0x0200bbdc                alt_avalon_dma_tx_ioctl
                0x0200bc20                alt_avalon_dma_rx_ioctl
                0x0200bc64                alt_avalon_dma_prepare
                0x0200bdb8                alt_avalon_dma_space
                0x0200be38                alt_avalon_dma_send
                0x0200c154                alt_avalon_dma_init
 .text          0x0200c274      0x148 ../homework_bsp/\libhal_bsp.a(altera_avalon_jtag_uart_fd.o)
                0x0200c274                altera_avalon_jtag_uart_read_fd
                0x0200c2cc                altera_avalon_jtag_uart_write_fd
                0x0200c324                altera_avalon_jtag_uart_close_fd
                0x0200c36c                altera_avalon_jtag_uart_ioctl_fd
 .text          0x0200c3bc      0x40c ../homework_bsp/\libhal_bsp.a(altera_avalon_jtag_uart_init.o)
                0x0200c3bc                altera_avalon_jtag_uart_init
                0x0200c754                altera_avalon_jtag_uart_close
 .text          0x0200c7c8       0xf4 ../homework_bsp/\libhal_bsp.a(altera_avalon_jtag_uart_ioctl.o)
                0x0200c7c8                altera_avalon_jtag_uart_ioctl
 .text          0x0200c8bc      0x224 ../homework_bsp/\libhal_bsp.a(altera_avalon_jtag_uart_read.o)
                0x0200c8bc                altera_avalon_jtag_uart_read
 .text          0x0200cae0      0x240 ../homework_bsp/\libhal_bsp.a(altera_avalon_jtag_uart_write.o)
                0x0200cae0                altera_avalon_jtag_uart_write
 .text          0x0200cd20        0x0 ../homework_bsp/\libhal_bsp.a(altera_avalon_timer_vars.o)
 .text          0x0200cd20       0xf8 ../homework_bsp/\libhal_bsp.a(altera_avalon_uart_fd.o)
                0x0200cd20                altera_avalon_uart_read_fd
                0x0200cd78                altera_avalon_uart_write_fd
                0x0200cdd0                altera_avalon_uart_close_fd
 .text          0x0200ce18      0x400 ../homework_bsp/\libhal_bsp.a(altera_avalon_uart_init.o)
                0x0200ce18                altera_avalon_uart_init
                0x0200d1b8                altera_avalon_uart_close
 .text          0x0200d218      0x290 ../homework_bsp/\libhal_bsp.a(altera_avalon_uart_read.o)
                0x0200d218                altera_avalon_uart_read
 .text          0x0200d4a8      0x228 ../homework_bsp/\libhal_bsp.a(altera_avalon_uart_write.o)
                0x0200d4a8                altera_avalon_uart_write
 .text          0x0200d6d0      0x154 ../homework_bsp/\libhal_bsp.a(alt_alarm_start.o)
                0x0200d6d0                alt_alarm_start
 .text          0x0200d824       0x44 ../homework_bsp/\libhal_bsp.a(alt_dcache_flush_all.o)
                0x0200d824                alt_dcache_flush_all
 .text          0x0200d868      0x114 ../homework_bsp/\libhal_bsp.a(alt_dev_llist_insert.o)
                0x0200d868                alt_dev_llist_insert
 .text          0x0200d97c       0xb8 ../homework_bsp/\libhal_bsp.a(alt_dma_rxchan_open.o)
                0x0200d97c                alt_dma_rxchan_open
 .text          0x0200da34       0xb8 ../homework_bsp/\libhal_bsp.a(alt_dma_txchan_open.o)
                0x0200da34                alt_dma_txchan_open
 .text          0x0200daec       0x64 ../homework_bsp/\libhal_bsp.a(alt_do_ctors.o)
                0x0200daec                _do_ctors
 .text          0x0200db50       0x64 ../homework_bsp/\libhal_bsp.a(alt_do_dtors.o)
                0x0200db50                _do_dtors
 .text          0x0200dbb4       0x94 ../homework_bsp/\libhal_bsp.a(alt_find_dev.o)
                0x0200dbb4                alt_find_dev
 .text          0x0200dc48       0x30 ../homework_bsp/\libhal_bsp.a(alt_icache_flush_all.o)
                0x0200dc48                alt_icache_flush_all
 .text          0x0200dc78      0x1d4 ../homework_bsp/\libhal_bsp.a(alt_iic.o)
                0x0200dc78                alt_ic_isr_register
                0x0200dcc8                alt_ic_irq_enable
                0x0200dd64                alt_ic_irq_disable
                0x0200de04                alt_ic_irq_enabled
 .text          0x0200de4c       0xf8 ../homework_bsp/\libhal_bsp.a(alt_iic_isr_register.o)
                0x0200de4c                alt_iic_isr_register
 .text          0x0200df44      0x13c ../homework_bsp/\libhal_bsp.a(alt_io_redirect.o)
                0x0200e008                alt_io_redirect
 .text          0x0200e080        0x0 ../homework_bsp/\libhal_bsp.a(alt_irq_entry.o)
 .text          0x0200e080        0x0 ../homework_bsp/\libhal_bsp.a(alt_irq_handler.o)
 .text          0x0200e080      0x2c4 ../homework_bsp/\libhal_bsp.a(alt_open.o)
                0x0200e15c                open
 .text          0x0200e344      0x1a4 ../homework_bsp/\libhal_bsp.a(alt_tick.o)
                0x0200e344                alt_alarm_stop
                0x0200e3dc                alt_tick
 .text          0x0200e4e8       0x20 ../homework_bsp/\libhal_bsp.a(altera_nios2_qsys_irq.o)
                0x0200e4e8                altera_nios2_qsys_irq_init
 .text          0x0200e508        0x0 ../homework_bsp/\libhal_bsp.a(alt_exception_entry.o)
 .text          0x0200e508      0x120 ../homework_bsp/\libhal_bsp.a(alt_find_file.o)
                0x0200e508                alt_find_file
 .text          0x0200e628       0xb8 ../homework_bsp/\libhal_bsp.a(alt_get_fd.o)
                0x0200e628                alt_get_fd
 .text          0x0200e6e0       0x90 ../homework_bsp/\libhal_bsp.a(alt_icache_flush.o)
                0x0200e6e0                alt_icache_flush
 .text          0x0200e770       0x14 f:/quatus/nios2eds/bin/gnu/h-i686-mingw32/bin/../lib/gcc/nios2-elf/4.1.2/../../../../nios2-elf/lib\libc.a(lib_a-atexit.o)
                0x0200e770                atexit
 .text          0x0200e784       0x38 f:/quatus/nios2eds/bin/gnu/h-i686-mingw32/bin/../lib/gcc/nios2-elf/4.1.2/../../../../nios2-elf/lib\libc.a(lib_a-exit.o)
                0x0200e784                exit
 .text          0x0200e7bc       0x74 f:/quatus/nios2eds/bin/gnu/h-i686-mingw32/bin/../lib/gcc/nios2-elf/4.1.2/../../../../nios2-elf/lib\libc.a(lib_a-memcmp.o)
                0x0200e7bc                memcmp
 .text          0x0200e830      0x134 f:/quatus/nios2eds/bin/gnu/h-i686-mingw32/bin/../lib/gcc/nios2-elf/4.1.2/../../../../nios2-elf/lib\libc.a(lib_a-__atexit.o)
                0x0200e830                __register_exitproc
 .text          0x0200e964      0x1b4 f:/quatus/nios2eds/bin/gnu/h-i686-mingw32/bin/../lib/gcc/nios2-elf/4.1.2/../../../../nios2-elf/lib\libc.a(lib_a-__call_atexit.o)
                0x0200e968                __call_exitprocs
 .text          0x0200eb18       0x60 ../homework_bsp/\libhal_bsp.a(alt_exit.o)
                0x0200eb58                _exit
 *(.gnu.warning.*)
 *(.fini)
                0x0200eb78                PROVIDE (__etext, ABSOLUTE (.))
                0x0200eb78                PROVIDE (_etext, ABSOLUTE (.))
                0x0200eb78                PROVIDE (etext, ABSOLUTE (.))
 *(.eh_frame_hdr)
                0x0200eb78                . = ALIGN (0x4)
                0x0200eb78                PROVIDE (__preinit_array_start, ABSOLUTE (.))
 *(.preinit_array)
                0x0200eb78                PROVIDE (__preinit_array_end, ABSOLUTE (.))
                0x0200eb78                PROVIDE (__init_array_start, ABSOLUTE (.))
 *(.init_array)
                0x0200eb78                PROVIDE (__init_array_end, ABSOLUTE (.))
                0x0200eb78                PROVIDE (__fini_array_start, ABSOLUTE (.))
 *(.fini_array)
                0x0200eb78                PROVIDE (__fini_array_end, ABSOLUTE (.))
 *(.eh_frame)
 *(.gcc_except_table)
 *(.dynamic)
                0x0200eb78                PROVIDE (__CTOR_LIST__, ABSOLUTE (.))
 *(.ctors)
 *(SORT(.ctors.*))
 .ctors.65535   0x0200eb78        0x4 f:/quatus/nios2eds/bin/gnu/h-i686-mingw32/bin/../lib/gcc/nios2-elf/4.1.2/../../../../nios2-elf/lib\libc.a(lib_a-__call_atexit.o)
                0x0200eb7c                PROVIDE (__CTOR_END__, ABSOLUTE (.))
                0x0200eb7c                PROVIDE (__DTOR_LIST__, ABSOLUTE (.))
 *(.dtors)
 *(SORT(.dtors.*))
                0x0200eb7c                PROVIDE (__DTOR_END__, ABSOLUTE (.))
 *(.jcr)
                0x0200eb7c                . = ALIGN (0x4)

.rodata         0x0200eb7c      0x488
                0x0200eb7c                PROVIDE (__ram_rodata_start, ABSOLUTE (.))
                0x0200eb7c                . = ALIGN (0x4)
 *(.rodata .rodata.* .gnu.linkonce.r.*)
 .rodata        0x0200eb7c       0x2c obj/default/hello_world.o
 .rodata        0x0200eba8       0xbc obj/default/pio.o
 .rodata        0x0200ec64       0x3c obj/default/timebt.o
 .rodata        0x0200eca0       0x10 f:/quatus/nios2eds/bin/gnu/h-i686-mingw32/bin/../lib/gcc/nios2-elf/4.1.2\libgcc.a(_thenan_sf.o)
                0x0200eca0                __thenan_sf
 .rodata.str1.4
                0x0200ecb0        0x2 f:/quatus/nios2eds/bin/gnu/h-i686-mingw32/bin/../lib/gcc/nios2-elf/4.1.2/../../../../nios2-elf/lib\libc.a(lib_a-puts.o)
                                  0x4 (size before relaxing)
 *fill*         0x0200ecb2        0x2 00
 .rodata.str1.4
                0x0200ecb4       0x5e f:/quatus/nios2eds/bin/gnu/h-i686-mingw32/bin/../lib/gcc/nios2-elf/4.1.2/../../../../nios2-elf/lib\libc.a(lib_a-vfprintf.o)
                                 0x60 (size before relaxing)
 .rodata        0x0200ed12       0x20 f:/quatus/nios2eds/bin/gnu/h-i686-mingw32/bin/../lib/gcc/nios2-elf/4.1.2/../../../../nios2-elf/lib\libc.a(lib_a-vfprintf.o)
 *fill*         0x0200ed32        0x2 00
 .rodata.str1.4
                0x0200ed34       0x10 f:/quatus/nios2eds/bin/gnu/h-i686-mingw32/bin/../lib/gcc/nios2-elf/4.1.2/../../../../nios2-elf/lib\libc.a(lib_a-dtoa.o)
                                 0x14 (size before relaxing)
 .rodata.str1.4
                0x0200ed44        0x2 f:/quatus/nios2eds/bin/gnu/h-i686-mingw32/bin/../lib/gcc/nios2-elf/4.1.2/../../../../nios2-elf/lib\libc.a(lib_a-impure.o)
                                  0x4 (size before relaxing)
 *fill*         0x0200ed46        0x2 00
 .rodata.str1.4
                0x0200ed48       0x10 f:/quatus/nios2eds/bin/gnu/h-i686-mingw32/bin/../lib/gcc/nios2-elf/4.1.2/../../../../nios2-elf/lib\libc.a(lib_a-locale.o)
                                 0x18 (size before relaxing)
 .rodata        0x0200ed58       0x30 f:/quatus/nios2eds/bin/gnu/h-i686-mingw32/bin/../lib/gcc/nios2-elf/4.1.2/../../../../nios2-elf/lib\libc.a(lib_a-locale.o)
 .rodata        0x0200ed88      0x124 f:/quatus/nios2eds/bin/gnu/h-i686-mingw32/bin/../lib/gcc/nios2-elf/4.1.2/../../../../nios2-elf/lib\libc.a(lib_a-mprec.o)
                0x0200ed88                __mprec_tens
                0x0200ee50                __mprec_bigtens
                0x0200ee78                __mprec_tinytens
 .rodata        0x0200eeac       0x14 f:/quatus/nios2eds/bin/gnu/h-i686-mingw32/bin/../lib/gcc/nios2-elf/4.1.2\libgcc.a(_thenan_df.o)
                0x0200eeac                __thenan_df
 .rodata        0x0200eec0      0x100 f:/quatus/nios2eds/bin/gnu/h-i686-mingw32/bin/../lib/gcc/nios2-elf/4.1.2\libgcc.a(_clz.o)
                0x0200eec0                __clz_tab
 .rodata        0x0200efc0        0xc ../homework_bsp/\libhal_bsp.a(alt_dev.o)
 .rodata        0x0200efcc       0x10 ../homework_bsp/\libhal_bsp.a(alt_main.o)
 .rodata        0x0200efdc       0x28 ../homework_bsp/\libhal_bsp.a(alt_sys_init.o)
 *(.rodata1)
                0x0200f004                . = ALIGN (0x4)
                0x0200f004                PROVIDE (__ram_rodata_end, ABSOLUTE (.))
                0x0200eb7c                PROVIDE (__flash_rodata_start, LOADADDR (.rodata))

.rwdata         0x0200f004     0x1c0c load address 0x02010c10
                0x0200f004                PROVIDE (__ram_rwdata_start, ABSOLUTE (.))
                0x0200f004                . = ALIGN (0x4)
 *(.got.plt)
 *(.got)
 *(.data1)
 *(.data .data.* .gnu.linkonce.d.*)
 .data          0x0200f004        0x0 ../homework_bsp//obj/HAL/src/crt0.o
 .data          0x0200f004        0x0 obj/default/hello_world.o
 .data          0x0200f004        0x0 obj/default/pio.o
 .data          0x0200f004        0x0 obj/default/timebt.o
 .data          0x0200f004        0x0 f:/quatus/nios2eds/bin/gnu/h-i686-mingw32/bin/../lib/gcc/nios2-elf/4.1.2\libgcc.a(_mul_sf.o)
 .data          0x0200f004        0x0 f:/quatus/nios2eds/bin/gnu/h-i686-mingw32/bin/../lib/gcc/nios2-elf/4.1.2\libgcc.a(_sf_to_si.o)
 .data          0x0200f004        0x0 f:/quatus/nios2eds/bin/gnu/h-i686-mingw32/bin/../lib/gcc/nios2-elf/4.1.2\libgcc.a(_thenan_sf.o)
 .data          0x0200f004        0x0 f:/quatus/nios2eds/bin/gnu/h-i686-mingw32/bin/../lib/gcc/nios2-elf/4.1.2\libgcc.a(lib2-divmod.o)
 .data          0x0200f004        0x0 f:/quatus/nios2eds/bin/gnu/h-i686-mingw32/bin/../lib/gcc/nios2-elf/4.1.2\libgcc.a(_muldi3.o)
 .data          0x0200f004        0x0 f:/quatus/nios2eds/bin/gnu/h-i686-mingw32/bin/../lib/gcc/nios2-elf/4.1.2\libgcc.a(_pack_sf.o)
 .data          0x0200f004        0x0 f:/quatus/nios2eds/bin/gnu/h-i686-mingw32/bin/../lib/gcc/nios2-elf/4.1.2\libgcc.a(_unpack_sf.o)
 .data          0x0200f004        0x0 f:/quatus/nios2eds/bin/gnu/h-i686-mingw32/bin/../lib/gcc/nios2-elf/4.1.2/../../../../nios2-elf/lib\libc.a(lib_a-printf.o)
 .data          0x0200f004        0x0 f:/quatus/nios2eds/bin/gnu/h-i686-mingw32/bin/../lib/gcc/nios2-elf/4.1.2/../../../../nios2-elf/lib\libc.a(lib_a-puts.o)
 .data          0x0200f004        0x0 f:/quatus/nios2eds/bin/gnu/h-i686-mingw32/bin/../lib/gcc/nios2-elf/4.1.2/../../../../nios2-elf/lib\libc.a(lib_a-strlen.o)
 .data          0x0200f004        0x0 f:/quatus/nios2eds/bin/gnu/h-i686-mingw32/bin/../lib/gcc/nios2-elf/4.1.2/../../../../nios2-elf/lib\libc.a(lib_a-vfprintf.o)
 .data          0x0200f004        0x0 f:/quatus/nios2eds/bin/gnu/h-i686-mingw32/bin/../lib/gcc/nios2-elf/4.1.2/../../../../nios2-elf/lib\libc.a(lib_a-wsetup.o)
 .data          0x0200f004        0x0 f:/quatus/nios2eds/bin/gnu/h-i686-mingw32/bin/../lib/gcc/nios2-elf/4.1.2/../../../../nios2-elf/lib\libc.a(lib_a-dtoa.o)
 .data          0x0200f004        0x0 f:/quatus/nios2eds/bin/gnu/h-i686-mingw32/bin/../lib/gcc/nios2-elf/4.1.2/../../../../nios2-elf/lib\libc.a(lib_a-fflush.o)
 .data          0x0200f004        0x0 f:/quatus/nios2eds/bin/gnu/h-i686-mingw32/bin/../lib/gcc/nios2-elf/4.1.2/../../../../nios2-elf/lib\libc.a(lib_a-findfp.o)
 .data          0x0200f004        0x0 f:/quatus/nios2eds/bin/gnu/h-i686-mingw32/bin/../lib/gcc/nios2-elf/4.1.2/../../../../nios2-elf/lib\libc.a(lib_a-freer.o)
 .data          0x0200f004        0x0 f:/quatus/nios2eds/bin/gnu/h-i686-mingw32/bin/../lib/gcc/nios2-elf/4.1.2/../../../../nios2-elf/lib\libc.a(lib_a-fvwrite.o)
 .data          0x0200f004        0x0 f:/quatus/nios2eds/bin/gnu/h-i686-mingw32/bin/../lib/gcc/nios2-elf/4.1.2/../../../../nios2-elf/lib\libc.a(lib_a-fwalk.o)
 .data          0x0200f004      0x400 f:/quatus/nios2eds/bin/gnu/h-i686-mingw32/bin/../lib/gcc/nios2-elf/4.1.2/../../../../nios2-elf/lib\libc.a(lib_a-impure.o)
 .data          0x0200f404        0xc f:/quatus/nios2eds/bin/gnu/h-i686-mingw32/bin/../lib/gcc/nios2-elf/4.1.2/../../../../nios2-elf/lib\libc.a(lib_a-locale.o)
                0x0200f404                __lc_ctype
 .data          0x0200f410        0x0 f:/quatus/nios2eds/bin/gnu/h-i686-mingw32/bin/../lib/gcc/nios2-elf/4.1.2/../../../../nios2-elf/lib\libc.a(lib_a-makebuf.o)
 .data          0x0200f410      0x408 f:/quatus/nios2eds/bin/gnu/h-i686-mingw32/bin/../lib/gcc/nios2-elf/4.1.2/../../../../nios2-elf/lib\libc.a(lib_a-mallocr.o)
                0x0200f410                __malloc_av_
 .data          0x0200f818        0x0 f:/quatus/nios2eds/bin/gnu/h-i686-mingw32/bin/../lib/gcc/nios2-elf/4.1.2/../../../../nios2-elf/lib\libc.a(lib_a-memchr.o)
 .data          0x0200f818        0x0 f:/quatus/nios2eds/bin/gnu/h-i686-mingw32/bin/../lib/gcc/nios2-elf/4.1.2/../../../../nios2-elf/lib\libc.a(lib_a-memcpy.o)
 .data          0x0200f818        0x0 f:/quatus/nios2eds/bin/gnu/h-i686-mingw32/bin/../lib/gcc/nios2-elf/4.1.2/../../../../nios2-elf/lib\libc.a(lib_a-memmove.o)
 .data          0x0200f818        0x0 f:/quatus/nios2eds/bin/gnu/h-i686-mingw32/bin/../lib/gcc/nios2-elf/4.1.2/../../../../nios2-elf/lib\libc.a(lib_a-memset.o)
 .data          0x0200f818        0x0 f:/quatus/nios2eds/bin/gnu/h-i686-mingw32/bin/../lib/gcc/nios2-elf/4.1.2/../../../../nios2-elf/lib\libc.a(lib_a-mprec.o)
 .data          0x0200f818        0x0 f:/quatus/nios2eds/bin/gnu/h-i686-mingw32/bin/../lib/gcc/nios2-elf/4.1.2/../../../../nios2-elf/lib\libc.a(lib_a-reallocr.o)
 .data          0x0200f818        0x0 f:/quatus/nios2eds/bin/gnu/h-i686-mingw32/bin/../lib/gcc/nios2-elf/4.1.2/../../../../nios2-elf/lib\libc.a(lib_a-s_isinfd.o)
 .data          0x0200f818        0x0 f:/quatus/nios2eds/bin/gnu/h-i686-mingw32/bin/../lib/gcc/nios2-elf/4.1.2/../../../../nios2-elf/lib\libc.a(lib_a-s_isnand.o)
 .data          0x0200f818        0x0 f:/quatus/nios2eds/bin/gnu/h-i686-mingw32/bin/../lib/gcc/nios2-elf/4.1.2/../../../../nios2-elf/lib\libc.a(lib_a-sbrkr.o)
 .data          0x0200f818        0x0 f:/quatus/nios2eds/bin/gnu/h-i686-mingw32/bin/../lib/gcc/nios2-elf/4.1.2/../../../../nios2-elf/lib\libc.a(lib_a-stdio.o)
 .data          0x0200f818        0x0 f:/quatus/nios2eds/bin/gnu/h-i686-mingw32/bin/../lib/gcc/nios2-elf/4.1.2/../../../../nios2-elf/lib\libc.a(lib_a-strcmp.o)
 .data          0x0200f818        0x0 f:/quatus/nios2eds/bin/gnu/h-i686-mingw32/bin/../lib/gcc/nios2-elf/4.1.2/../../../../nios2-elf/lib\libc.a(lib_a-writer.o)
 .data          0x0200f818        0x0 f:/quatus/nios2eds/bin/gnu/h-i686-mingw32/bin/../lib/gcc/nios2-elf/4.1.2/../../../../nios2-elf/lib\libc.a(lib_a-callocr.o)
 .data          0x0200f818        0x0 f:/quatus/nios2eds/bin/gnu/h-i686-mingw32/bin/../lib/gcc/nios2-elf/4.1.2/../../../../nios2-elf/lib\libc.a(lib_a-closer.o)
 .data          0x0200f818        0x0 f:/quatus/nios2eds/bin/gnu/h-i686-mingw32/bin/../lib/gcc/nios2-elf/4.1.2/../../../../nios2-elf/lib\libc.a(lib_a-fclose.o)
 .data          0x0200f818        0x0 f:/quatus/nios2eds/bin/gnu/h-i686-mingw32/bin/../lib/gcc/nios2-elf/4.1.2/../../../../nios2-elf/lib\libc.a(lib_a-fstatr.o)
 .data          0x0200f818        0x0 f:/quatus/nios2eds/bin/gnu/h-i686-mingw32/bin/../lib/gcc/nios2-elf/4.1.2/../../../../nios2-elf/lib\libc.a(lib_a-int_errno.o)
 .data          0x0200f818        0x0 f:/quatus/nios2eds/bin/gnu/h-i686-mingw32/bin/../lib/gcc/nios2-elf/4.1.2/../../../../nios2-elf/lib\libc.a(lib_a-isattyr.o)
 .data          0x0200f818        0x0 f:/quatus/nios2eds/bin/gnu/h-i686-mingw32/bin/../lib/gcc/nios2-elf/4.1.2/../../../../nios2-elf/lib\libc.a(lib_a-lseekr.o)
 .data          0x0200f818        0x0 f:/quatus/nios2eds/bin/gnu/h-i686-mingw32/bin/../lib/gcc/nios2-elf/4.1.2/../../../../nios2-elf/lib\libc.a(lib_a-readr.o)
 .data          0x0200f818        0x0 f:/quatus/nios2eds/bin/gnu/h-i686-mingw32/bin/../lib/gcc/nios2-elf/4.1.2\libgcc.a(_udivdi3.o)
 .data          0x0200f818        0x0 f:/quatus/nios2eds/bin/gnu/h-i686-mingw32/bin/../lib/gcc/nios2-elf/4.1.2\libgcc.a(_umoddi3.o)
 .data          0x0200f818        0x0 f:/quatus/nios2eds/bin/gnu/h-i686-mingw32/bin/../lib/gcc/nios2-elf/4.1.2\libgcc.a(_addsub_df.o)
 .data          0x0200f818        0x0 f:/quatus/nios2eds/bin/gnu/h-i686-mingw32/bin/../lib/gcc/nios2-elf/4.1.2\libgcc.a(_mul_df.o)
 .data          0x0200f818        0x0 f:/quatus/nios2eds/bin/gnu/h-i686-mingw32/bin/../lib/gcc/nios2-elf/4.1.2\libgcc.a(_div_df.o)
 .data          0x0200f818        0x0 f:/quatus/nios2eds/bin/gnu/h-i686-mingw32/bin/../lib/gcc/nios2-elf/4.1.2\libgcc.a(_eq_df.o)
 .data          0x0200f818        0x0 f:/quatus/nios2eds/bin/gnu/h-i686-mingw32/bin/../lib/gcc/nios2-elf/4.1.2\libgcc.a(_ne_df.o)
 .data          0x0200f818        0x0 f:/quatus/nios2eds/bin/gnu/h-i686-mingw32/bin/../lib/gcc/nios2-elf/4.1.2\libgcc.a(_gt_df.o)
 .data          0x0200f818        0x0 f:/quatus/nios2eds/bin/gnu/h-i686-mingw32/bin/../lib/gcc/nios2-elf/4.1.2\libgcc.a(_ge_df.o)
 .data          0x0200f818        0x0 f:/quatus/nios2eds/bin/gnu/h-i686-mingw32/bin/../lib/gcc/nios2-elf/4.1.2\libgcc.a(_lt_df.o)
 .data          0x0200f818        0x0 f:/quatus/nios2eds/bin/gnu/h-i686-mingw32/bin/../lib/gcc/nios2-elf/4.1.2\libgcc.a(_si_to_df.o)
 .data          0x0200f818        0x0 f:/quatus/nios2eds/bin/gnu/h-i686-mingw32/bin/../lib/gcc/nios2-elf/4.1.2\libgcc.a(_df_to_si.o)
 .data          0x0200f818        0x0 f:/quatus/nios2eds/bin/gnu/h-i686-mingw32/bin/../lib/gcc/nios2-elf/4.1.2\libgcc.a(_thenan_df.o)
 .data          0x0200f818        0x0 f:/quatus/nios2eds/bin/gnu/h-i686-mingw32/bin/../lib/gcc/nios2-elf/4.1.2\libgcc.a(_usi_to_df.o)
 .data          0x0200f818        0x0 f:/quatus/nios2eds/bin/gnu/h-i686-mingw32/bin/../lib/gcc/nios2-elf/4.1.2\libgcc.a(_clz.o)
 .data          0x0200f818        0x0 f:/quatus/nios2eds/bin/gnu/h-i686-mingw32/bin/../lib/gcc/nios2-elf/4.1.2\libgcc.a(_clzsi2.o)
 .data          0x0200f818        0x0 f:/quatus/nios2eds/bin/gnu/h-i686-mingw32/bin/../lib/gcc/nios2-elf/4.1.2\libgcc.a(_pack_df.o)
 .data          0x0200f818        0x0 f:/quatus/nios2eds/bin/gnu/h-i686-mingw32/bin/../lib/gcc/nios2-elf/4.1.2\libgcc.a(_unpack_df.o)
 .data          0x0200f818        0x0 f:/quatus/nios2eds/bin/gnu/h-i686-mingw32/bin/../lib/gcc/nios2-elf/4.1.2\libgcc.a(_fpcmp_parts_df.o)
 .data          0x0200f818        0x0 ../homework_bsp/\libhal_bsp.a(alt_close.o)
 .data          0x0200f818      0x1a8 ../homework_bsp/\libhal_bsp.a(alt_dev.o)
                0x0200f818                alt_dev_null
                0x0200f840                alt_fd_list
 .data          0x0200f9c0        0x0 ../homework_bsp/\libhal_bsp.a(alt_errno.o)
 .data          0x0200f9c0        0x0 ../homework_bsp/\libhal_bsp.a(alt_fstat.o)
 .data          0x0200f9c0        0x0 ../homework_bsp/\libhal_bsp.a(alt_irq_register.o)
 .data          0x0200f9c0        0x0 ../homework_bsp/\libhal_bsp.a(alt_irq_vars.o)
 .data          0x0200f9c0        0x0 ../homework_bsp/\libhal_bsp.a(alt_isatty.o)
 .data          0x0200f9c0        0x0 ../homework_bsp/\libhal_bsp.a(alt_load.o)
 .data          0x0200f9c0        0x0 ../homework_bsp/\libhal_bsp.a(alt_lseek.o)
 .data          0x0200f9c0        0x0 ../homework_bsp/\libhal_bsp.a(alt_main.o)
 .data          0x0200f9c0        0x0 ../homework_bsp/\libhal_bsp.a(alt_malloc_lock.o)
 .data          0x0200f9c0        0x0 ../homework_bsp/\libhal_bsp.a(alt_read.o)
 .data          0x0200f9c0        0x0 ../homework_bsp/\libhal_bsp.a(alt_release_fd.o)
 .data          0x0200f9c0        0x0 ../homework_bsp/\libhal_bsp.a(alt_sbrk.o)
 .data          0x0200f9c0        0x0 ../homework_bsp/\libhal_bsp.a(alt_write.o)
 .data          0x0200f9c0     0x1200 ../homework_bsp/\libhal_bsp.a(alt_sys_init.o)
 .data          0x02010bc0        0x0 ../homework_bsp/\libhal_bsp.a(altera_avalon_dma.o)
 .data          0x02010bc0        0x0 ../homework_bsp/\libhal_bsp.a(altera_avalon_jtag_uart_fd.o)
 .data          0x02010bc0        0x0 ../homework_bsp/\libhal_bsp.a(altera_avalon_jtag_uart_init.o)
 .data          0x02010bc0        0x0 ../homework_bsp/\libhal_bsp.a(altera_avalon_jtag_uart_ioctl.o)
 .data          0x02010bc0        0x0 ../homework_bsp/\libhal_bsp.a(altera_avalon_jtag_uart_read.o)
 .data          0x02010bc0        0x0 ../homework_bsp/\libhal_bsp.a(altera_avalon_jtag_uart_write.o)
 .data          0x02010bc0        0x0 ../homework_bsp/\libhal_bsp.a(altera_avalon_timer_vars.o)
 .data          0x02010bc0        0x0 ../homework_bsp/\libhal_bsp.a(altera_avalon_uart_fd.o)
 .data          0x02010bc0        0x0 ../homework_bsp/\libhal_bsp.a(altera_avalon_uart_init.o)
 .data          0x02010bc0        0x0 ../homework_bsp/\libhal_bsp.a(altera_avalon_uart_read.o)
 .data          0x02010bc0        0x0 ../homework_bsp/\libhal_bsp.a(altera_avalon_uart_write.o)
 .data          0x02010bc0        0x0 ../homework_bsp/\libhal_bsp.a(alt_alarm_start.o)
 .data          0x02010bc0        0x0 ../homework_bsp/\libhal_bsp.a(alt_dcache_flush_all.o)
 .data          0x02010bc0        0x0 ../homework_bsp/\libhal_bsp.a(alt_dev_llist_insert.o)
 .data          0x02010bc0        0x0 ../homework_bsp/\libhal_bsp.a(alt_dma_rxchan_open.o)
 .data          0x02010bc0        0x0 ../homework_bsp/\libhal_bsp.a(alt_dma_txchan_open.o)
 .data          0x02010bc0        0x0 ../homework_bsp/\libhal_bsp.a(alt_do_ctors.o)
 .data          0x02010bc0        0x0 ../homework_bsp/\libhal_bsp.a(alt_do_dtors.o)
 .data          0x02010bc0        0x0 ../homework_bsp/\libhal_bsp.a(alt_find_dev.o)
 .data          0x02010bc0        0x0 ../homework_bsp/\libhal_bsp.a(alt_icache_flush_all.o)
 .data          0x02010bc0        0x0 ../homework_bsp/\libhal_bsp.a(alt_iic.o)
 .data          0x02010bc0        0x0 ../homework_bsp/\libhal_bsp.a(alt_iic_isr_register.o)
 .data          0x02010bc0        0x0 ../homework_bsp/\libhal_bsp.a(alt_io_redirect.o)
 .data          0x02010bc0        0x0 ../homework_bsp/\libhal_bsp.a(alt_irq_entry.o)
 .data          0x02010bc0        0x0 ../homework_bsp/\libhal_bsp.a(alt_irq_handler.o)
 .data          0x02010bc0        0x0 ../homework_bsp/\libhal_bsp.a(alt_open.o)
 .data          0x02010bc0        0x0 ../homework_bsp/\libhal_bsp.a(alt_tick.o)
 .data          0x02010bc0        0x0 ../homework_bsp/\libhal_bsp.a(altera_nios2_qsys_irq.o)
 .data          0x02010bc0        0x0 ../homework_bsp/\libhal_bsp.a(alt_exception_entry.o)
 .data          0x02010bc0        0x0 ../homework_bsp/\libhal_bsp.a(alt_find_file.o)
 .data          0x02010bc0        0x0 ../homework_bsp/\libhal_bsp.a(alt_get_fd.o)
 .data          0x02010bc0        0x0 ../homework_bsp/\libhal_bsp.a(alt_icache_flush.o)
 .data          0x02010bc0        0x0 f:/quatus/nios2eds/bin/gnu/h-i686-mingw32/bin/../lib/gcc/nios2-elf/4.1.2/../../../../nios2-elf/lib\libc.a(lib_a-atexit.o)
 .data          0x02010bc0        0x0 f:/quatus/nios2eds/bin/gnu/h-i686-mingw32/bin/../lib/gcc/nios2-elf/4.1.2/../../../../nios2-elf/lib\libc.a(lib_a-exit.o)
 .data          0x02010bc0        0x0 f:/quatus/nios2eds/bin/gnu/h-i686-mingw32/bin/../lib/gcc/nios2-elf/4.1.2/../../../../nios2-elf/lib\libc.a(lib_a-memcmp.o)
 .data          0x02010bc0        0x0 f:/quatus/nios2eds/bin/gnu/h-i686-mingw32/bin/../lib/gcc/nios2-elf/4.1.2/../../../../nios2-elf/lib\libc.a(lib_a-__atexit.o)
 .data          0x02010bc0        0x0 f:/quatus/nios2eds/bin/gnu/h-i686-mingw32/bin/../lib/gcc/nios2-elf/4.1.2/../../../../nios2-elf/lib\libc.a(lib_a-__call_atexit.o)
 .data          0x02010bc0        0x0 ../homework_bsp/\libhal_bsp.a(alt_exit.o)
                0x02018bc0                _gp = ABSOLUTE ((. + 0x8000))
                0x02018bc0                PROVIDE (gp, _gp)
 *(.rwdata .rwdata.*)
 *(.sdata .sdata.* .gnu.linkonce.s.*)
 .sdata         0x02010bc0        0x8 f:/quatus/nios2eds/bin/gnu/h-i686-mingw32/bin/../lib/gcc/nios2-elf/4.1.2/../../../../nios2-elf/lib\libc.a(lib_a-impure.o)
                0x02010bc0                _impure_ptr
                0x02010bc4                _global_impure_ptr
 .sdata         0x02010bc8        0x8 f:/quatus/nios2eds/bin/gnu/h-i686-mingw32/bin/../lib/gcc/nios2-elf/4.1.2/../../../../nios2-elf/lib\libc.a(lib_a-locale.o)
                0x02010bc8                __mb_cur_max
 .sdata         0x02010bd0        0x8 f:/quatus/nios2eds/bin/gnu/h-i686-mingw32/bin/../lib/gcc/nios2-elf/4.1.2/../../../../nios2-elf/lib\libc.a(lib_a-mallocr.o)
                0x02010bd0                __malloc_trim_threshold
                0x02010bd4                __malloc_sbrk_base
 .sdata         0x02010bd8       0x14 ../homework_bsp/\libhal_bsp.a(alt_dev.o)
                0x02010bd8                alt_fs_list
                0x02010be0                alt_dev_list
                0x02010be8                alt_max_fd
 .sdata         0x02010bec        0x4 ../homework_bsp/\libhal_bsp.a(alt_errno.o)
                0x02010bec                alt_errno
 .sdata         0x02010bf0        0x4 ../homework_bsp/\libhal_bsp.a(alt_irq_vars.o)
                0x02010bf0                alt_priority_mask
 .sdata         0x02010bf4        0x4 ../homework_bsp/\libhal_bsp.a(alt_sbrk.o)
 .sdata         0x02010bf8        0x8 ../homework_bsp/\libhal_bsp.a(alt_dma_rxchan_open.o)
                0x02010bf8                alt_dma_rxchan_list
 .sdata         0x02010c00        0x8 ../homework_bsp/\libhal_bsp.a(alt_dma_txchan_open.o)
                0x02010c00                alt_dma_txchan_list
 .sdata         0x02010c08        0x8 ../homework_bsp/\libhal_bsp.a(alt_tick.o)
                0x02010c08                alt_alarm_list
 *(.sdata2 .sdata2.* .gnu.linkonce.s2.*)
                0x02010c10                . = ALIGN (0x4)
                0x02010c10                _edata = ABSOLUTE (.)
                0x02010c10                PROVIDE (edata, ABSOLUTE (.))
                0x02010c10                PROVIDE (__ram_rwdata_end, ABSOLUTE (.))
                0x02010c10                PROVIDE (__flash_rwdata_start, LOADADDR (.rwdata))

.bss            0x0201281c      0x2f4
                0x0201281c                __bss_start = ABSOLUTE (.)
                0x0201281c                PROVIDE (__sbss_start, ABSOLUTE (.))
                0x0201281c                PROVIDE (___sbss_start, ABSOLUTE (.))
 *(.dynsbss)
 *(.sbss .sbss.* .gnu.linkonce.sb.*)
 .sbss          0x0201281c        0xc f:/quatus/nios2eds/bin/gnu/h-i686-mingw32/bin/../lib/gcc/nios2-elf/4.1.2/../../../../nios2-elf/lib\libc.a(lib_a-locale.o)
                0x0201281c                __nlocale_changed
                0x02012820                __mlocale_changed
                0x02012824                _PathLocale
 .sbss          0x02012828        0xc f:/quatus/nios2eds/bin/gnu/h-i686-mingw32/bin/../lib/gcc/nios2-elf/4.1.2/../../../../nios2-elf/lib\libc.a(lib_a-mallocr.o)
                0x02012828                __malloc_top_pad
                0x0201282c                __malloc_max_sbrked_mem
                0x02012830                __malloc_max_total_mem
 .sbss          0x02012834        0x4 f:/quatus/nios2eds/bin/gnu/h-i686-mingw32/bin/../lib/gcc/nios2-elf/4.1.2/../../../../nios2-elf/lib\libc.a(lib_a-int_errno.o)
                0x02012834                errno
 .sbss          0x02012838        0x4 ../homework_bsp/\libhal_bsp.a(alt_irq_vars.o)
                0x02012838                alt_irq_active
 .sbss          0x0201283c        0xc ../homework_bsp/\libhal_bsp.a(alt_main.o)
                0x0201283c                alt_argc
                0x02012840                alt_argv
                0x02012844                alt_envp
 .sbss          0x02012848        0x8 ../homework_bsp/\libhal_bsp.a(altera_avalon_timer_vars.o)
                0x02012848                altera_avalon_timer_ts_base
                0x0201284c                altera_avalon_timer_ts_freq
 .sbss          0x02012850        0x8 ../homework_bsp/\libhal_bsp.a(alt_tick.o)
                0x02012850                _alt_tick_rate
                0x02012854                _alt_nticks
 *(.sbss2 .sbss2.* .gnu.linkonce.sb2.*)
 *(.scommon)
                0x02012858                PROVIDE (__sbss_end, ABSOLUTE (.))
                0x02012858                PROVIDE (___sbss_end, ABSOLUTE (.))
 *(.dynbss)
 *(.bss .bss.* .gnu.linkonce.b.*)
 .bss           0x02012858        0x0 ../homework_bsp//obj/HAL/src/crt0.o
 .bss           0x02012858        0x0 obj/default/hello_world.o
 .bss           0x02012858        0x0 obj/default/pio.o
 .bss           0x02012858        0x0 obj/default/timebt.o
 .bss           0x02012858        0x0 f:/quatus/nios2eds/bin/gnu/h-i686-mingw32/bin/../lib/gcc/nios2-elf/4.1.2\libgcc.a(_mul_sf.o)
 .bss           0x02012858        0x0 f:/quatus/nios2eds/bin/gnu/h-i686-mingw32/bin/../lib/gcc/nios2-elf/4.1.2\libgcc.a(_sf_to_si.o)
 .bss           0x02012858        0x0 f:/quatus/nios2eds/bin/gnu/h-i686-mingw32/bin/../lib/gcc/nios2-elf/4.1.2\libgcc.a(_thenan_sf.o)
 .bss           0x02012858        0x0 f:/quatus/nios2eds/bin/gnu/h-i686-mingw32/bin/../lib/gcc/nios2-elf/4.1.2\libgcc.a(lib2-divmod.o)
 .bss           0x02012858        0x0 f:/quatus/nios2eds/bin/gnu/h-i686-mingw32/bin/../lib/gcc/nios2-elf/4.1.2\libgcc.a(_muldi3.o)
 .bss           0x02012858        0x0 f:/quatus/nios2eds/bin/gnu/h-i686-mingw32/bin/../lib/gcc/nios2-elf/4.1.2\libgcc.a(_pack_sf.o)
 .bss           0x02012858        0x0 f:/quatus/nios2eds/bin/gnu/h-i686-mingw32/bin/../lib/gcc/nios2-elf/4.1.2\libgcc.a(_unpack_sf.o)
 .bss           0x02012858        0x0 f:/quatus/nios2eds/bin/gnu/h-i686-mingw32/bin/../lib/gcc/nios2-elf/4.1.2/../../../../nios2-elf/lib\libc.a(lib_a-printf.o)
 .bss           0x02012858        0x0 f:/quatus/nios2eds/bin/gnu/h-i686-mingw32/bin/../lib/gcc/nios2-elf/4.1.2/../../../../nios2-elf/lib\libc.a(lib_a-puts.o)
 .bss           0x02012858        0x0 f:/quatus/nios2eds/bin/gnu/h-i686-mingw32/bin/../lib/gcc/nios2-elf/4.1.2/../../../../nios2-elf/lib\libc.a(lib_a-strlen.o)
 .bss           0x02012858        0x0 f:/quatus/nios2eds/bin/gnu/h-i686-mingw32/bin/../lib/gcc/nios2-elf/4.1.2/../../../../nios2-elf/lib\libc.a(lib_a-vfprintf.o)
 .bss           0x02012858        0x0 f:/quatus/nios2eds/bin/gnu/h-i686-mingw32/bin/../lib/gcc/nios2-elf/4.1.2/../../../../nios2-elf/lib\libc.a(lib_a-wsetup.o)
 .bss           0x02012858        0x0 f:/quatus/nios2eds/bin/gnu/h-i686-mingw32/bin/../lib/gcc/nios2-elf/4.1.2/../../../../nios2-elf/lib\libc.a(lib_a-dtoa.o)
 .bss           0x02012858        0x0 f:/quatus/nios2eds/bin/gnu/h-i686-mingw32/bin/../lib/gcc/nios2-elf/4.1.2/../../../../nios2-elf/lib\libc.a(lib_a-fflush.o)
 .bss           0x02012858        0x0 f:/quatus/nios2eds/bin/gnu/h-i686-mingw32/bin/../lib/gcc/nios2-elf/4.1.2/../../../../nios2-elf/lib\libc.a(lib_a-findfp.o)
 .bss           0x02012858        0x0 f:/quatus/nios2eds/bin/gnu/h-i686-mingw32/bin/../lib/gcc/nios2-elf/4.1.2/../../../../nios2-elf/lib\libc.a(lib_a-freer.o)
 .bss           0x02012858        0x0 f:/quatus/nios2eds/bin/gnu/h-i686-mingw32/bin/../lib/gcc/nios2-elf/4.1.2/../../../../nios2-elf/lib\libc.a(lib_a-fvwrite.o)
 .bss           0x02012858        0x0 f:/quatus/nios2eds/bin/gnu/h-i686-mingw32/bin/../lib/gcc/nios2-elf/4.1.2/../../../../nios2-elf/lib\libc.a(lib_a-fwalk.o)
 .bss           0x02012858        0x0 f:/quatus/nios2eds/bin/gnu/h-i686-mingw32/bin/../lib/gcc/nios2-elf/4.1.2/../../../../nios2-elf/lib\libc.a(lib_a-impure.o)
 .bss           0x02012858        0x0 f:/quatus/nios2eds/bin/gnu/h-i686-mingw32/bin/../lib/gcc/nios2-elf/4.1.2/../../../../nios2-elf/lib\libc.a(lib_a-locale.o)
 .bss           0x02012858        0x0 f:/quatus/nios2eds/bin/gnu/h-i686-mingw32/bin/../lib/gcc/nios2-elf/4.1.2/../../../../nios2-elf/lib\libc.a(lib_a-makebuf.o)
 .bss           0x02012858       0x28 f:/quatus/nios2eds/bin/gnu/h-i686-mingw32/bin/../lib/gcc/nios2-elf/4.1.2/../../../../nios2-elf/lib\libc.a(lib_a-mallocr.o)
                0x02012858                __malloc_current_mallinfo
 .bss           0x02012880        0x0 f:/quatus/nios2eds/bin/gnu/h-i686-mingw32/bin/../lib/gcc/nios2-elf/4.1.2/../../../../nios2-elf/lib\libc.a(lib_a-memchr.o)
 .bss           0x02012880        0x0 f:/quatus/nios2eds/bin/gnu/h-i686-mingw32/bin/../lib/gcc/nios2-elf/4.1.2/../../../../nios2-elf/lib\libc.a(lib_a-memcpy.o)
 .bss           0x02012880        0x0 f:/quatus/nios2eds/bin/gnu/h-i686-mingw32/bin/../lib/gcc/nios2-elf/4.1.2/../../../../nios2-elf/lib\libc.a(lib_a-memmove.o)
 .bss           0x02012880        0x0 f:/quatus/nios2eds/bin/gnu/h-i686-mingw32/bin/../lib/gcc/nios2-elf/4.1.2/../../../../nios2-elf/lib\libc.a(lib_a-memset.o)
 .bss           0x02012880        0x0 f:/quatus/nios2eds/bin/gnu/h-i686-mingw32/bin/../lib/gcc/nios2-elf/4.1.2/../../../../nios2-elf/lib\libc.a(lib_a-mprec.o)
 .bss           0x02012880        0x0 f:/quatus/nios2eds/bin/gnu/h-i686-mingw32/bin/../lib/gcc/nios2-elf/4.1.2/../../../../nios2-elf/lib\libc.a(lib_a-reallocr.o)
 .bss           0x02012880        0x0 f:/quatus/nios2eds/bin/gnu/h-i686-mingw32/bin/../lib/gcc/nios2-elf/4.1.2/../../../../nios2-elf/lib\libc.a(lib_a-s_isinfd.o)
 .bss           0x02012880        0x0 f:/quatus/nios2eds/bin/gnu/h-i686-mingw32/bin/../lib/gcc/nios2-elf/4.1.2/../../../../nios2-elf/lib\libc.a(lib_a-s_isnand.o)
 .bss           0x02012880        0x0 f:/quatus/nios2eds/bin/gnu/h-i686-mingw32/bin/../lib/gcc/nios2-elf/4.1.2/../../../../nios2-elf/lib\libc.a(lib_a-sbrkr.o)
 .bss           0x02012880        0x0 f:/quatus/nios2eds/bin/gnu/h-i686-mingw32/bin/../lib/gcc/nios2-elf/4.1.2/../../../../nios2-elf/lib\libc.a(lib_a-stdio.o)
 .bss           0x02012880        0x0 f:/quatus/nios2eds/bin/gnu/h-i686-mingw32/bin/../lib/gcc/nios2-elf/4.1.2/../../../../nios2-elf/lib\libc.a(lib_a-strcmp.o)
 .bss           0x02012880        0x0 f:/quatus/nios2eds/bin/gnu/h-i686-mingw32/bin/../lib/gcc/nios2-elf/4.1.2/../../../../nios2-elf/lib\libc.a(lib_a-writer.o)
 .bss           0x02012880        0x0 f:/quatus/nios2eds/bin/gnu/h-i686-mingw32/bin/../lib/gcc/nios2-elf/4.1.2/../../../../nios2-elf/lib\libc.a(lib_a-callocr.o)
 .bss           0x02012880        0x0 f:/quatus/nios2eds/bin/gnu/h-i686-mingw32/bin/../lib/gcc/nios2-elf/4.1.2/../../../../nios2-elf/lib\libc.a(lib_a-closer.o)
 .bss           0x02012880        0x0 f:/quatus/nios2eds/bin/gnu/h-i686-mingw32/bin/../lib/gcc/nios2-elf/4.1.2/../../../../nios2-elf/lib\libc.a(lib_a-fclose.o)
 .bss           0x02012880        0x0 f:/quatus/nios2eds/bin/gnu/h-i686-mingw32/bin/../lib/gcc/nios2-elf/4.1.2/../../../../nios2-elf/lib\libc.a(lib_a-fstatr.o)
 .bss           0x02012880        0x0 f:/quatus/nios2eds/bin/gnu/h-i686-mingw32/bin/../lib/gcc/nios2-elf/4.1.2/../../../../nios2-elf/lib\libc.a(lib_a-int_errno.o)
 .bss           0x02012880        0x0 f:/quatus/nios2eds/bin/gnu/h-i686-mingw32/bin/../lib/gcc/nios2-elf/4.1.2/../../../../nios2-elf/lib\libc.a(lib_a-isattyr.o)
 .bss           0x02012880        0x0 f:/quatus/nios2eds/bin/gnu/h-i686-mingw32/bin/../lib/gcc/nios2-elf/4.1.2/../../../../nios2-elf/lib\libc.a(lib_a-lseekr.o)
 .bss           0x02012880        0x0 f:/quatus/nios2eds/bin/gnu/h-i686-mingw32/bin/../lib/gcc/nios2-elf/4.1.2/../../../../nios2-elf/lib\libc.a(lib_a-readr.o)
 .bss           0x02012880        0x0 f:/quatus/nios2eds/bin/gnu/h-i686-mingw32/bin/../lib/gcc/nios2-elf/4.1.2\libgcc.a(_udivdi3.o)
 .bss           0x02012880        0x0 f:/quatus/nios2eds/bin/gnu/h-i686-mingw32/bin/../lib/gcc/nios2-elf/4.1.2\libgcc.a(_umoddi3.o)
 .bss           0x02012880        0x0 f:/quatus/nios2eds/bin/gnu/h-i686-mingw32/bin/../lib/gcc/nios2-elf/4.1.2\libgcc.a(_addsub_df.o)
 .bss           0x02012880        0x0 f:/quatus/nios2eds/bin/gnu/h-i686-mingw32/bin/../lib/gcc/nios2-elf/4.1.2\libgcc.a(_mul_df.o)
 .bss           0x02012880        0x0 f:/quatus/nios2eds/bin/gnu/h-i686-mingw32/bin/../lib/gcc/nios2-elf/4.1.2\libgcc.a(_div_df.o)
 .bss           0x02012880        0x0 f:/quatus/nios2eds/bin/gnu/h-i686-mingw32/bin/../lib/gcc/nios2-elf/4.1.2\libgcc.a(_eq_df.o)
 .bss           0x02012880        0x0 f:/quatus/nios2eds/bin/gnu/h-i686-mingw32/bin/../lib/gcc/nios2-elf/4.1.2\libgcc.a(_ne_df.o)
 .bss           0x02012880        0x0 f:/quatus/nios2eds/bin/gnu/h-i686-mingw32/bin/../lib/gcc/nios2-elf/4.1.2\libgcc.a(_gt_df.o)
 .bss           0x02012880        0x0 f:/quatus/nios2eds/bin/gnu/h-i686-mingw32/bin/../lib/gcc/nios2-elf/4.1.2\libgcc.a(_ge_df.o)
 .bss           0x02012880        0x0 f:/quatus/nios2eds/bin/gnu/h-i686-mingw32/bin/../lib/gcc/nios2-elf/4.1.2\libgcc.a(_lt_df.o)
 .bss           0x02012880        0x0 f:/quatus/nios2eds/bin/gnu/h-i686-mingw32/bin/../lib/gcc/nios2-elf/4.1.2\libgcc.a(_si_to_df.o)
 .bss           0x02012880        0x0 f:/quatus/nios2eds/bin/gnu/h-i686-mingw32/bin/../lib/gcc/nios2-elf/4.1.2\libgcc.a(_df_to_si.o)
 .bss           0x02012880        0x0 f:/quatus/nios2eds/bin/gnu/h-i686-mingw32/bin/../lib/gcc/nios2-elf/4.1.2\libgcc.a(_thenan_df.o)
 .bss           0x02012880        0x0 f:/quatus/nios2eds/bin/gnu/h-i686-mingw32/bin/../lib/gcc/nios2-elf/4.1.2\libgcc.a(_usi_to_df.o)
 .bss           0x02012880        0x0 f:/quatus/nios2eds/bin/gnu/h-i686-mingw32/bin/../lib/gcc/nios2-elf/4.1.2\libgcc.a(_clz.o)
 .bss           0x02012880        0x0 f:/quatus/nios2eds/bin/gnu/h-i686-mingw32/bin/../lib/gcc/nios2-elf/4.1.2\libgcc.a(_clzsi2.o)
 .bss           0x02012880        0x0 f:/quatus/nios2eds/bin/gnu/h-i686-mingw32/bin/../lib/gcc/nios2-elf/4.1.2\libgcc.a(_pack_df.o)
 .bss           0x02012880        0x0 f:/quatus/nios2eds/bin/gnu/h-i686-mingw32/bin/../lib/gcc/nios2-elf/4.1.2\libgcc.a(_unpack_df.o)
 .bss           0x02012880        0x0 f:/quatus/nios2eds/bin/gnu/h-i686-mingw32/bin/../lib/gcc/nios2-elf/4.1.2\libgcc.a(_fpcmp_parts_df.o)
 .bss           0x02012880        0x0 ../homework_bsp/\libhal_bsp.a(alt_close.o)
 .bss           0x02012880        0x0 ../homework_bsp/\libhal_bsp.a(alt_dev.o)
 .bss           0x02012880        0x0 ../homework_bsp/\libhal_bsp.a(alt_errno.o)
 .bss           0x02012880        0x0 ../homework_bsp/\libhal_bsp.a(alt_fstat.o)
 .bss           0x02012880        0x0 ../homework_bsp/\libhal_bsp.a(alt_irq_register.o)
 .bss           0x02012880        0x0 ../homework_bsp/\libhal_bsp.a(alt_irq_vars.o)
 .bss           0x02012880        0x0 ../homework_bsp/\libhal_bsp.a(alt_isatty.o)
 .bss           0x02012880        0x0 ../homework_bsp/\libhal_bsp.a(alt_load.o)
 .bss           0x02012880        0x0 ../homework_bsp/\libhal_bsp.a(alt_lseek.o)
 .bss           0x02012880        0x0 ../homework_bsp/\libhal_bsp.a(alt_main.o)
 .bss           0x02012880        0x0 ../homework_bsp/\libhal_bsp.a(alt_malloc_lock.o)
 .bss           0x02012880        0x0 ../homework_bsp/\libhal_bsp.a(alt_read.o)
 .bss           0x02012880        0x0 ../homework_bsp/\libhal_bsp.a(alt_release_fd.o)
 .bss           0x02012880        0x0 ../homework_bsp/\libhal_bsp.a(alt_sbrk.o)
 .bss           0x02012880        0x0 ../homework_bsp/\libhal_bsp.a(alt_write.o)
 .bss           0x02012880        0x0 ../homework_bsp/\libhal_bsp.a(alt_sys_init.o)
 .bss           0x02012880        0x0 ../homework_bsp/\libhal_bsp.a(altera_avalon_dma.o)
 .bss           0x02012880        0x0 ../homework_bsp/\libhal_bsp.a(altera_avalon_jtag_uart_fd.o)
 .bss           0x02012880        0x0 ../homework_bsp/\libhal_bsp.a(altera_avalon_jtag_uart_init.o)
 .bss           0x02012880        0x0 ../homework_bsp/\libhal_bsp.a(altera_avalon_jtag_uart_ioctl.o)
 .bss           0x02012880        0x0 ../homework_bsp/\libhal_bsp.a(altera_avalon_jtag_uart_read.o)
 .bss           0x02012880        0x0 ../homework_bsp/\libhal_bsp.a(altera_avalon_jtag_uart_write.o)
 .bss           0x02012880        0x0 ../homework_bsp/\libhal_bsp.a(altera_avalon_timer_vars.o)
 .bss           0x02012880        0x0 ../homework_bsp/\libhal_bsp.a(altera_avalon_uart_fd.o)
 .bss           0x02012880        0x0 ../homework_bsp/\libhal_bsp.a(altera_avalon_uart_init.o)
 .bss           0x02012880        0x0 ../homework_bsp/\libhal_bsp.a(altera_avalon_uart_read.o)
 .bss           0x02012880        0x0 ../homework_bsp/\libhal_bsp.a(altera_avalon_uart_write.o)
 .bss           0x02012880        0x0 ../homework_bsp/\libhal_bsp.a(alt_alarm_start.o)
 .bss           0x02012880        0x0 ../homework_bsp/\libhal_bsp.a(alt_dcache_flush_all.o)
 .bss           0x02012880        0x0 ../homework_bsp/\libhal_bsp.a(alt_dev_llist_insert.o)
 .bss           0x02012880        0x0 ../homework_bsp/\libhal_bsp.a(alt_dma_rxchan_open.o)
 .bss           0x02012880        0x0 ../homework_bsp/\libhal_bsp.a(alt_dma_txchan_open.o)
 .bss           0x02012880        0x0 ../homework_bsp/\libhal_bsp.a(alt_do_ctors.o)
 .bss           0x02012880        0x0 ../homework_bsp/\libhal_bsp.a(alt_do_dtors.o)
 .bss           0x02012880        0x0 ../homework_bsp/\libhal_bsp.a(alt_find_dev.o)
 .bss           0x02012880        0x0 ../homework_bsp/\libhal_bsp.a(alt_icache_flush_all.o)
 .bss           0x02012880        0x0 ../homework_bsp/\libhal_bsp.a(alt_iic.o)
 .bss           0x02012880        0x0 ../homework_bsp/\libhal_bsp.a(alt_iic_isr_register.o)
 .bss           0x02012880        0x0 ../homework_bsp/\libhal_bsp.a(alt_io_redirect.o)
 .bss           0x02012880        0x0 ../homework_bsp/\libhal_bsp.a(alt_irq_entry.o)
 .bss           0x02012880        0x0 ../homework_bsp/\libhal_bsp.a(alt_irq_handler.o)
 .bss           0x02012880        0x0 ../homework_bsp/\libhal_bsp.a(alt_open.o)
 .bss           0x02012880        0x0 ../homework_bsp/\libhal_bsp.a(alt_tick.o)
 .bss           0x02012880        0x0 ../homework_bsp/\libhal_bsp.a(altera_nios2_qsys_irq.o)
 .bss           0x02012880        0x0 ../homework_bsp/\libhal_bsp.a(alt_exception_entry.o)
 .bss           0x02012880        0x0 ../homework_bsp/\libhal_bsp.a(alt_find_file.o)
 .bss           0x02012880        0x0 ../homework_bsp/\libhal_bsp.a(alt_get_fd.o)
 .bss           0x02012880        0x0 ../homework_bsp/\libhal_bsp.a(alt_icache_flush.o)
 .bss           0x02012880        0x0 f:/quatus/nios2eds/bin/gnu/h-i686-mingw32/bin/../lib/gcc/nios2-elf/4.1.2/../../../../nios2-elf/lib\libc.a(lib_a-atexit.o)
 .bss           0x02012880        0x0 f:/quatus/nios2eds/bin/gnu/h-i686-mingw32/bin/../lib/gcc/nios2-elf/4.1.2/../../../../nios2-elf/lib\libc.a(lib_a-exit.o)
 .bss           0x02012880        0x0 f:/quatus/nios2eds/bin/gnu/h-i686-mingw32/bin/../lib/gcc/nios2-elf/4.1.2/../../../../nios2-elf/lib\libc.a(lib_a-memcmp.o)
 .bss           0x02012880        0x0 f:/quatus/nios2eds/bin/gnu/h-i686-mingw32/bin/../lib/gcc/nios2-elf/4.1.2/../../../../nios2-elf/lib\libc.a(lib_a-__atexit.o)
 .bss           0x02012880        0x0 f:/quatus/nios2eds/bin/gnu/h-i686-mingw32/bin/../lib/gcc/nios2-elf/4.1.2/../../../../nios2-elf/lib\libc.a(lib_a-__call_atexit.o)
 .bss           0x02012880        0x0 ../homework_bsp/\libhal_bsp.a(alt_exit.o)
 *(COMMON)
 COMMON         0x02012880      0x100 ../homework_bsp/\libhal_bsp.a(alt_irq_handler.o)
                0x02012880                alt_irq
 COMMON         0x02012980      0x190 f:/quatus/nios2eds/bin/gnu/h-i686-mingw32/bin/../lib/gcc/nios2-elf/4.1.2/../../../../nios2-elf/lib\libc.a(lib_a-atexit.o)
                0x02012980                _atexit0
                0x02012b10                . = ALIGN (0x4)
                0x02012b10                __bss_end = ABSOLUTE (.)

.sdram_ctrl     0x02012b10        0x0
                0x02012b10                PROVIDE (_alt_partition_sdram_ctrl_start, ABSOLUTE (.))
 *(.sdram_ctrl. sdram_ctrl.*)
                0x02012b10                . = ALIGN (0x4)
                0x02012b10                PROVIDE (_alt_partition_sdram_ctrl_end, ABSOLUTE (.))
                0x02012b10                _end = ABSOLUTE (.)
                0x02012b10                end = ABSOLUTE (.)
                0x02012b10                __alt_stack_base = ABSOLUTE (.)
                0x02012b10                PROVIDE (_alt_partition_sdram_ctrl_load_addr, LOADADDR (.sdram_ctrl))

.stab
 *(.stab)

.stabstr
 *(.stabstr)

.stab.excl
 *(.stab.excl)

.stab.exclstr
 *(.stab.exclstr)

.stab.index
 *(.stab.index)

.stab.indexstr
 *(.stab.indexstr)

.comment        0x00000000       0x26
 *(.comment)
 .comment       0x00000000       0x26 obj/default/hello_world.o
                                 0x27 (size before relaxing)
 .comment       0x00000000       0x27 obj/default/pio.o
 .comment       0x00000000       0x27 obj/default/timebt.o
 .comment       0x00000000       0x27 f:/quatus/nios2eds/bin/gnu/h-i686-mingw32/bin/../lib/gcc/nios2-elf/4.1.2\libgcc.a(_mul_sf.o)
 .comment       0x00000000       0x27 f:/quatus/nios2eds/bin/gnu/h-i686-mingw32/bin/../lib/gcc/nios2-elf/4.1.2\libgcc.a(_sf_to_si.o)
 .comment       0x00000000       0x27 f:/quatus/nios2eds/bin/gnu/h-i686-mingw32/bin/../lib/gcc/nios2-elf/4.1.2\libgcc.a(_thenan_sf.o)
 .comment       0x00000000       0x27 f:/quatus/nios2eds/bin/gnu/h-i686-mingw32/bin/../lib/gcc/nios2-elf/4.1.2\libgcc.a(lib2-divmod.o)
 .comment       0x00000000       0x27 f:/quatus/nios2eds/bin/gnu/h-i686-mingw32/bin/../lib/gcc/nios2-elf/4.1.2\libgcc.a(_muldi3.o)
 .comment       0x00000000       0x27 f:/quatus/nios2eds/bin/gnu/h-i686-mingw32/bin/../lib/gcc/nios2-elf/4.1.2\libgcc.a(_pack_sf.o)
 .comment       0x00000000       0x27 f:/quatus/nios2eds/bin/gnu/h-i686-mingw32/bin/../lib/gcc/nios2-elf/4.1.2\libgcc.a(_unpack_sf.o)
 .comment       0x00000000       0x27 f:/quatus/nios2eds/bin/gnu/h-i686-mingw32/bin/../lib/gcc/nios2-elf/4.1.2/../../../../nios2-elf/lib\libc.a(lib_a-printf.o)
 .comment       0x00000000       0x27 f:/quatus/nios2eds/bin/gnu/h-i686-mingw32/bin/../lib/gcc/nios2-elf/4.1.2/../../../../nios2-elf/lib\libc.a(lib_a-puts.o)
 .comment       0x00000000       0x27 f:/quatus/nios2eds/bin/gnu/h-i686-mingw32/bin/../lib/gcc/nios2-elf/4.1.2/../../../../nios2-elf/lib\libc.a(lib_a-strlen.o)
 .comment       0x00000000       0x27 f:/quatus/nios2eds/bin/gnu/h-i686-mingw32/bin/../lib/gcc/nios2-elf/4.1.2/../../../../nios2-elf/lib\libc.a(lib_a-vfprintf.o)
 .comment       0x00000000       0x27 f:/quatus/nios2eds/bin/gnu/h-i686-mingw32/bin/../lib/gcc/nios2-elf/4.1.2/../../../../nios2-elf/lib\libc.a(lib_a-wsetup.o)
 .comment       0x00000000       0x27 f:/quatus/nios2eds/bin/gnu/h-i686-mingw32/bin/../lib/gcc/nios2-elf/4.1.2/../../../../nios2-elf/lib\libc.a(lib_a-dtoa.o)
 .comment       0x00000000       0x27 f:/quatus/nios2eds/bin/gnu/h-i686-mingw32/bin/../lib/gcc/nios2-elf/4.1.2/../../../../nios2-elf/lib\libc.a(lib_a-fflush.o)
 .comment       0x00000000       0x27 f:/quatus/nios2eds/bin/gnu/h-i686-mingw32/bin/../lib/gcc/nios2-elf/4.1.2/../../../../nios2-elf/lib\libc.a(lib_a-findfp.o)
 .comment       0x00000000       0x27 f:/quatus/nios2eds/bin/gnu/h-i686-mingw32/bin/../lib/gcc/nios2-elf/4.1.2/../../../../nios2-elf/lib\libc.a(lib_a-freer.o)
 .comment       0x00000000       0x27 f:/quatus/nios2eds/bin/gnu/h-i686-mingw32/bin/../lib/gcc/nios2-elf/4.1.2/../../../../nios2-elf/lib\libc.a(lib_a-fvwrite.o)
 .comment       0x00000000       0x27 f:/quatus/nios2eds/bin/gnu/h-i686-mingw32/bin/../lib/gcc/nios2-elf/4.1.2/../../../../nios2-elf/lib\libc.a(lib_a-fwalk.o)
 .comment       0x00000000       0x27 f:/quatus/nios2eds/bin/gnu/h-i686-mingw32/bin/../lib/gcc/nios2-elf/4.1.2/../../../../nios2-elf/lib\libc.a(lib_a-impure.o)
 .comment       0x00000000       0x27 f:/quatus/nios2eds/bin/gnu/h-i686-mingw32/bin/../lib/gcc/nios2-elf/4.1.2/../../../../nios2-elf/lib\libc.a(lib_a-locale.o)
 .comment       0x00000000       0x27 f:/quatus/nios2eds/bin/gnu/h-i686-mingw32/bin/../lib/gcc/nios2-elf/4.1.2/../../../../nios2-elf/lib\libc.a(lib_a-makebuf.o)
 .comment       0x00000000       0x27 f:/quatus/nios2eds/bin/gnu/h-i686-mingw32/bin/../lib/gcc/nios2-elf/4.1.2/../../../../nios2-elf/lib\libc.a(lib_a-mallocr.o)
 .comment       0x00000000       0x27 f:/quatus/nios2eds/bin/gnu/h-i686-mingw32/bin/../lib/gcc/nios2-elf/4.1.2/../../../../nios2-elf/lib\libc.a(lib_a-memchr.o)
 .comment       0x00000000       0x27 f:/quatus/nios2eds/bin/gnu/h-i686-mingw32/bin/../lib/gcc/nios2-elf/4.1.2/../../../../nios2-elf/lib\libc.a(lib_a-memcpy.o)
 .comment       0x00000000       0x27 f:/quatus/nios2eds/bin/gnu/h-i686-mingw32/bin/../lib/gcc/nios2-elf/4.1.2/../../../../nios2-elf/lib\libc.a(lib_a-memmove.o)
 .comment       0x00000000       0x27 f:/quatus/nios2eds/bin/gnu/h-i686-mingw32/bin/../lib/gcc/nios2-elf/4.1.2/../../../../nios2-elf/lib\libc.a(lib_a-memset.o)
 .comment       0x00000000       0x27 f:/quatus/nios2eds/bin/gnu/h-i686-mingw32/bin/../lib/gcc/nios2-elf/4.1.2/../../../../nios2-elf/lib\libc.a(lib_a-mprec.o)
 .comment       0x00000000       0x27 f:/quatus/nios2eds/bin/gnu/h-i686-mingw32/bin/../lib/gcc/nios2-elf/4.1.2/../../../../nios2-elf/lib\libc.a(lib_a-reallocr.o)
 .comment       0x00000000       0x27 f:/quatus/nios2eds/bin/gnu/h-i686-mingw32/bin/../lib/gcc/nios2-elf/4.1.2/../../../../nios2-elf/lib\libc.a(lib_a-s_isinfd.o)
 .comment       0x00000000       0x27 f:/quatus/nios2eds/bin/gnu/h-i686-mingw32/bin/../lib/gcc/nios2-elf/4.1.2/../../../../nios2-elf/lib\libc.a(lib_a-s_isnand.o)
 .comment       0x00000000       0x27 f:/quatus/nios2eds/bin/gnu/h-i686-mingw32/bin/../lib/gcc/nios2-elf/4.1.2/../../../../nios2-elf/lib\libc.a(lib_a-sbrkr.o)
 .comment       0x00000000       0x27 f:/quatus/nios2eds/bin/gnu/h-i686-mingw32/bin/../lib/gcc/nios2-elf/4.1.2/../../../../nios2-elf/lib\libc.a(lib_a-stdio.o)
 .comment       0x00000000       0x27 f:/quatus/nios2eds/bin/gnu/h-i686-mingw32/bin/../lib/gcc/nios2-elf/4.1.2/../../../../nios2-elf/lib\libc.a(lib_a-strcmp.o)
 .comment       0x00000000       0x27 f:/quatus/nios2eds/bin/gnu/h-i686-mingw32/bin/../lib/gcc/nios2-elf/4.1.2/../../../../nios2-elf/lib\libc.a(lib_a-writer.o)
 .comment       0x00000000       0x27 f:/quatus/nios2eds/bin/gnu/h-i686-mingw32/bin/../lib/gcc/nios2-elf/4.1.2/../../../../nios2-elf/lib\libc.a(lib_a-callocr.o)
 .comment       0x00000000       0x27 f:/quatus/nios2eds/bin/gnu/h-i686-mingw32/bin/../lib/gcc/nios2-elf/4.1.2/../../../../nios2-elf/lib\libc.a(lib_a-closer.o)
 .comment       0x00000000       0x27 f:/quatus/nios2eds/bin/gnu/h-i686-mingw32/bin/../lib/gcc/nios2-elf/4.1.2/../../../../nios2-elf/lib\libc.a(lib_a-fclose.o)
 .comment       0x00000000       0x27 f:/quatus/nios2eds/bin/gnu/h-i686-mingw32/bin/../lib/gcc/nios2-elf/4.1.2/../../../../nios2-elf/lib\libc.a(lib_a-fstatr.o)
 .comment       0x00000000       0x27 f:/quatus/nios2eds/bin/gnu/h-i686-mingw32/bin/../lib/gcc/nios2-elf/4.1.2/../../../../nios2-elf/lib\libc.a(lib_a-int_errno.o)
 .comment       0x00000000       0x27 f:/quatus/nios2eds/bin/gnu/h-i686-mingw32/bin/../lib/gcc/nios2-elf/4.1.2/../../../../nios2-elf/lib\libc.a(lib_a-isattyr.o)
 .comment       0x00000000       0x27 f:/quatus/nios2eds/bin/gnu/h-i686-mingw32/bin/../lib/gcc/nios2-elf/4.1.2/../../../../nios2-elf/lib\libc.a(lib_a-lseekr.o)
 .comment       0x00000000       0x27 f:/quatus/nios2eds/bin/gnu/h-i686-mingw32/bin/../lib/gcc/nios2-elf/4.1.2/../../../../nios2-elf/lib\libc.a(lib_a-readr.o)
 .comment       0x00000000       0x27 f:/quatus/nios2eds/bin/gnu/h-i686-mingw32/bin/../lib/gcc/nios2-elf/4.1.2\libgcc.a(_udivdi3.o)
 .comment       0x00000000       0x27 f:/quatus/nios2eds/bin/gnu/h-i686-mingw32/bin/../lib/gcc/nios2-elf/4.1.2\libgcc.a(_umoddi3.o)
 .comment       0x00000000       0x27 f:/quatus/nios2eds/bin/gnu/h-i686-mingw32/bin/../lib/gcc/nios2-elf/4.1.2\libgcc.a(_addsub_df.o)
 .comment       0x00000000       0x27 f:/quatus/nios2eds/bin/gnu/h-i686-mingw32/bin/../lib/gcc/nios2-elf/4.1.2\libgcc.a(_mul_df.o)
 .comment       0x00000000       0x27 f:/quatus/nios2eds/bin/gnu/h-i686-mingw32/bin/../lib/gcc/nios2-elf/4.1.2\libgcc.a(_div_df.o)
 .comment       0x00000000       0x27 f:/quatus/nios2eds/bin/gnu/h-i686-mingw32/bin/../lib/gcc/nios2-elf/4.1.2\libgcc.a(_eq_df.o)
 .comment       0x00000000       0x27 f:/quatus/nios2eds/bin/gnu/h-i686-mingw32/bin/../lib/gcc/nios2-elf/4.1.2\libgcc.a(_ne_df.o)
 .comment       0x00000000       0x27 f:/quatus/nios2eds/bin/gnu/h-i686-mingw32/bin/../lib/gcc/nios2-elf/4.1.2\libgcc.a(_gt_df.o)
 .comment       0x00000000       0x27 f:/quatus/nios2eds/bin/gnu/h-i686-mingw32/bin/../lib/gcc/nios2-elf/4.1.2\libgcc.a(_ge_df.o)
 .comment       0x00000000       0x27 f:/quatus/nios2eds/bin/gnu/h-i686-mingw32/bin/../lib/gcc/nios2-elf/4.1.2\libgcc.a(_lt_df.o)
 .comment       0x00000000       0x27 f:/quatus/nios2eds/bin/gnu/h-i686-mingw32/bin/../lib/gcc/nios2-elf/4.1.2\libgcc.a(_si_to_df.o)
 .comment       0x00000000       0x27 f:/quatus/nios2eds/bin/gnu/h-i686-mingw32/bin/../lib/gcc/nios2-elf/4.1.2\libgcc.a(_df_to_si.o)
 .comment       0x00000000       0x27 f:/quatus/nios2eds/bin/gnu/h-i686-mingw32/bin/../lib/gcc/nios2-elf/4.1.2\libgcc.a(_thenan_df.o)
 .comment       0x00000000       0x27 f:/quatus/nios2eds/bin/gnu/h-i686-mingw32/bin/../lib/gcc/nios2-elf/4.1.2\libgcc.a(_usi_to_df.o)
 .comment       0x00000000       0x27 f:/quatus/nios2eds/bin/gnu/h-i686-mingw32/bin/../lib/gcc/nios2-elf/4.1.2\libgcc.a(_clz.o)
 .comment       0x00000000       0x27 f:/quatus/nios2eds/bin/gnu/h-i686-mingw32/bin/../lib/gcc/nios2-elf/4.1.2\libgcc.a(_clzsi2.o)
 .comment       0x00000000       0x27 f:/quatus/nios2eds/bin/gnu/h-i686-mingw32/bin/../lib/gcc/nios2-elf/4.1.2\libgcc.a(_pack_df.o)
 .comment       0x00000000       0x27 f:/quatus/nios2eds/bin/gnu/h-i686-mingw32/bin/../lib/gcc/nios2-elf/4.1.2\libgcc.a(_unpack_df.o)
 .comment       0x00000000       0x27 f:/quatus/nios2eds/bin/gnu/h-i686-mingw32/bin/../lib/gcc/nios2-elf/4.1.2\libgcc.a(_fpcmp_parts_df.o)
 .comment       0x00000000       0x27 ../homework_bsp/\libhal_bsp.a(alt_close.o)
 .comment       0x00000000       0x27 ../homework_bsp/\libhal_bsp.a(alt_dev.o)
 .comment       0x00000000       0x27 ../homework_bsp/\libhal_bsp.a(alt_errno.o)
 .comment       0x00000000       0x27 ../homework_bsp/\libhal_bsp.a(alt_fstat.o)
 .comment       0x00000000       0x27 ../homework_bsp/\libhal_bsp.a(alt_irq_register.o)
 .comment       0x00000000       0x27 ../homework_bsp/\libhal_bsp.a(alt_irq_vars.o)
 .comment       0x00000000       0x27 ../homework_bsp/\libhal_bsp.a(alt_isatty.o)
 .comment       0x00000000       0x27 ../homework_bsp/\libhal_bsp.a(alt_load.o)
 .comment       0x00000000       0x27 ../homework_bsp/\libhal_bsp.a(alt_lseek.o)
 .comment       0x00000000       0x27 ../homework_bsp/\libhal_bsp.a(alt_main.o)
 .comment       0x00000000       0x27 ../homework_bsp/\libhal_bsp.a(alt_malloc_lock.o)
 .comment       0x00000000       0x27 ../homework_bsp/\libhal_bsp.a(alt_read.o)
 .comment       0x00000000       0x27 ../homework_bsp/\libhal_bsp.a(alt_release_fd.o)
 .comment       0x00000000       0x27 ../homework_bsp/\libhal_bsp.a(alt_sbrk.o)
 .comment       0x00000000       0x27 ../homework_bsp/\libhal_bsp.a(alt_write.o)
 .comment       0x00000000       0x27 ../homework_bsp/\libhal_bsp.a(alt_sys_init.o)
 .comment       0x00000000       0x27 ../homework_bsp/\libhal_bsp.a(altera_avalon_dma.o)
 .comment       0x00000000       0x27 ../homework_bsp/\libhal_bsp.a(altera_avalon_jtag_uart_fd.o)
 .comment       0x00000000       0x27 ../homework_bsp/\libhal_bsp.a(altera_avalon_jtag_uart_init.o)
 .comment       0x00000000       0x27 ../homework_bsp/\libhal_bsp.a(altera_avalon_jtag_uart_ioctl.o)
 .comment       0x00000000       0x27 ../homework_bsp/\libhal_bsp.a(altera_avalon_jtag_uart_read.o)
 .comment       0x00000000       0x27 ../homework_bsp/\libhal_bsp.a(altera_avalon_jtag_uart_write.o)
 .comment       0x00000000       0x27 ../homework_bsp/\libhal_bsp.a(altera_avalon_timer_vars.o)
 .comment       0x00000000       0x27 ../homework_bsp/\libhal_bsp.a(altera_avalon_uart_fd.o)
 .comment       0x00000000       0x27 ../homework_bsp/\libhal_bsp.a(altera_avalon_uart_init.o)
 .comment       0x00000000       0x27 ../homework_bsp/\libhal_bsp.a(altera_avalon_uart_read.o)
 .comment       0x00000000       0x27 ../homework_bsp/\libhal_bsp.a(altera_avalon_uart_write.o)
 .comment       0x00000000       0x27 ../homework_bsp/\libhal_bsp.a(alt_alarm_start.o)
 .comment       0x00000000       0x27 ../homework_bsp/\libhal_bsp.a(alt_dcache_flush_all.o)
 .comment       0x00000000       0x27 ../homework_bsp/\libhal_bsp.a(alt_dev_llist_insert.o)
 .comment       0x00000000       0x27 ../homework_bsp/\libhal_bsp.a(alt_dma_rxchan_open.o)
 .comment       0x00000000       0x27 ../homework_bsp/\libhal_bsp.a(alt_dma_txchan_open.o)
 .comment       0x00000000       0x27 ../homework_bsp/\libhal_bsp.a(alt_do_ctors.o)
 .comment       0x00000000       0x27 ../homework_bsp/\libhal_bsp.a(alt_do_dtors.o)
 .comment       0x00000000       0x27 ../homework_bsp/\libhal_bsp.a(alt_find_dev.o)
 .comment       0x00000000       0x27 ../homework_bsp/\libhal_bsp.a(alt_icache_flush_all.o)
 .comment       0x00000000       0x27 ../homework_bsp/\libhal_bsp.a(alt_iic.o)
 .comment       0x00000000       0x27 ../homework_bsp/\libhal_bsp.a(alt_iic_isr_register.o)
 .comment       0x00000000       0x27 ../homework_bsp/\libhal_bsp.a(alt_io_redirect.o)
 .comment       0x00000000       0x27 ../homework_bsp/\libhal_bsp.a(alt_irq_handler.o)
 .comment       0x00000000       0x27 ../homework_bsp/\libhal_bsp.a(alt_open.o)
 .comment       0x00000000       0x27 ../homework_bsp/\libhal_bsp.a(alt_tick.o)
 .comment       0x00000000       0x27 ../homework_bsp/\libhal_bsp.a(altera_nios2_qsys_irq.o)
 .comment       0x00000000       0x27 ../homework_bsp/\libhal_bsp.a(alt_find_file.o)
 .comment       0x00000000       0x27 ../homework_bsp/\libhal_bsp.a(alt_get_fd.o)
 .comment       0x00000000       0x27 ../homework_bsp/\libhal_bsp.a(alt_icache_flush.o)
 .comment       0x00000000       0x27 f:/quatus/nios2eds/bin/gnu/h-i686-mingw32/bin/../lib/gcc/nios2-elf/4.1.2/../../../../nios2-elf/lib\libc.a(lib_a-atexit.o)
 .comment       0x00000000       0x27 f:/quatus/nios2eds/bin/gnu/h-i686-mingw32/bin/../lib/gcc/nios2-elf/4.1.2/../../../../nios2-elf/lib\libc.a(lib_a-exit.o)
 .comment       0x00000000       0x27 f:/quatus/nios2eds/bin/gnu/h-i686-mingw32/bin/../lib/gcc/nios2-elf/4.1.2/../../../../nios2-elf/lib\libc.a(lib_a-memcmp.o)
 .comment       0x00000000       0x27 f:/quatus/nios2eds/bin/gnu/h-i686-mingw32/bin/../lib/gcc/nios2-elf/4.1.2/../../../../nios2-elf/lib\libc.a(lib_a-__atexit.o)
 .comment       0x00000000       0x27 f:/quatus/nios2eds/bin/gnu/h-i686-mingw32/bin/../lib/gcc/nios2-elf/4.1.2/../../../../nios2-elf/lib\libc.a(lib_a-__call_atexit.o)
 .comment       0x00000000       0x27 ../homework_bsp/\libhal_bsp.a(alt_exit.o)

.debug
 *(.debug)

.line
 *(.line)

.debug_srcinfo
 *(.debug_srcinfo)

.debug_sfnames
 *(.debug_sfnames)

.debug_aranges  0x00000000      0xe18
 *(.debug_aranges)
 .debug_aranges
                0x00000000       0x28 ../homework_bsp//obj/HAL/src/crt0.o
 .debug_aranges
                0x00000028       0x20 obj/default/hello_world.o
 .debug_aranges
                0x00000048       0x20 obj/default/pio.o
 .debug_aranges
                0x00000068       0x20 obj/default/timebt.o
 .debug_aranges
                0x00000088       0x20 f:/quatus/nios2eds/bin/gnu/h-i686-mingw32/bin/../lib/gcc/nios2-elf/4.1.2\libgcc.a(_mul_sf.o)
 .debug_aranges
                0x000000a8       0x20 f:/quatus/nios2eds/bin/gnu/h-i686-mingw32/bin/../lib/gcc/nios2-elf/4.1.2\libgcc.a(_sf_to_si.o)
 .debug_aranges
                0x000000c8       0x20 f:/quatus/nios2eds/bin/gnu/h-i686-mingw32/bin/../lib/gcc/nios2-elf/4.1.2\libgcc.a(lib2-divmod.o)
 .debug_aranges
                0x000000e8       0x20 f:/quatus/nios2eds/bin/gnu/h-i686-mingw32/bin/../lib/gcc/nios2-elf/4.1.2\libgcc.a(_muldi3.o)
 .debug_aranges
                0x00000108       0x20 f:/quatus/nios2eds/bin/gnu/h-i686-mingw32/bin/../lib/gcc/nios2-elf/4.1.2\libgcc.a(_pack_sf.o)
 .debug_aranges
                0x00000128       0x20 f:/quatus/nios2eds/bin/gnu/h-i686-mingw32/bin/../lib/gcc/nios2-elf/4.1.2\libgcc.a(_unpack_sf.o)
 .debug_aranges
                0x00000148       0x20 f:/quatus/nios2eds/bin/gnu/h-i686-mingw32/bin/../lib/gcc/nios2-elf/4.1.2/../../../../nios2-elf/lib\libc.a(lib_a-printf.o)
 .debug_aranges
                0x00000168       0x20 f:/quatus/nios2eds/bin/gnu/h-i686-mingw32/bin/../lib/gcc/nios2-elf/4.1.2/../../../../nios2-elf/lib\libc.a(lib_a-puts.o)
 .debug_aranges
                0x00000188       0x20 f:/quatus/nios2eds/bin/gnu/h-i686-mingw32/bin/../lib/gcc/nios2-elf/4.1.2/../../../../nios2-elf/lib\libc.a(lib_a-strlen.o)
 .debug_aranges
                0x000001a8       0x20 f:/quatus/nios2eds/bin/gnu/h-i686-mingw32/bin/../lib/gcc/nios2-elf/4.1.2/../../../../nios2-elf/lib\libc.a(lib_a-vfprintf.o)
 .debug_aranges
                0x000001c8       0x20 f:/quatus/nios2eds/bin/gnu/h-i686-mingw32/bin/../lib/gcc/nios2-elf/4.1.2/../../../../nios2-elf/lib\libc.a(lib_a-wsetup.o)
 .debug_aranges
                0x000001e8       0x20 f:/quatus/nios2eds/bin/gnu/h-i686-mingw32/bin/../lib/gcc/nios2-elf/4.1.2/../../../../nios2-elf/lib\libc.a(lib_a-dtoa.o)
 .debug_aranges
                0x00000208       0x20 f:/quatus/nios2eds/bin/gnu/h-i686-mingw32/bin/../lib/gcc/nios2-elf/4.1.2/../../../../nios2-elf/lib\libc.a(lib_a-fflush.o)
 .debug_aranges
                0x00000228       0x20 f:/quatus/nios2eds/bin/gnu/h-i686-mingw32/bin/../lib/gcc/nios2-elf/4.1.2/../../../../nios2-elf/lib\libc.a(lib_a-findfp.o)
 .debug_aranges
                0x00000248       0x20 f:/quatus/nios2eds/bin/gnu/h-i686-mingw32/bin/../lib/gcc/nios2-elf/4.1.2/../../../../nios2-elf/lib\libc.a(lib_a-freer.o)
 .debug_aranges
                0x00000268       0x20 f:/quatus/nios2eds/bin/gnu/h-i686-mingw32/bin/../lib/gcc/nios2-elf/4.1.2/../../../../nios2-elf/lib\libc.a(lib_a-fvwrite.o)
 .debug_aranges
                0x00000288       0x20 f:/quatus/nios2eds/bin/gnu/h-i686-mingw32/bin/../lib/gcc/nios2-elf/4.1.2/../../../../nios2-elf/lib\libc.a(lib_a-fwalk.o)
 .debug_aranges
                0x000002a8       0x20 f:/quatus/nios2eds/bin/gnu/h-i686-mingw32/bin/../lib/gcc/nios2-elf/4.1.2/../../../../nios2-elf/lib\libc.a(lib_a-locale.o)
 .debug_aranges
                0x000002c8       0x20 f:/quatus/nios2eds/bin/gnu/h-i686-mingw32/bin/../lib/gcc/nios2-elf/4.1.2/../../../../nios2-elf/lib\libc.a(lib_a-makebuf.o)
 .debug_aranges
                0x000002e8       0x20 f:/quatus/nios2eds/bin/gnu/h-i686-mingw32/bin/../lib/gcc/nios2-elf/4.1.2/../../../../nios2-elf/lib\libc.a(lib_a-mallocr.o)
 .debug_aranges
                0x00000308       0x20 f:/quatus/nios2eds/bin/gnu/h-i686-mingw32/bin/../lib/gcc/nios2-elf/4.1.2/../../../../nios2-elf/lib\libc.a(lib_a-memchr.o)
 .debug_aranges
                0x00000328       0x20 f:/quatus/nios2eds/bin/gnu/h-i686-mingw32/bin/../lib/gcc/nios2-elf/4.1.2/../../../../nios2-elf/lib\libc.a(lib_a-memcpy.o)
 .debug_aranges
                0x00000348       0x20 f:/quatus/nios2eds/bin/gnu/h-i686-mingw32/bin/../lib/gcc/nios2-elf/4.1.2/../../../../nios2-elf/lib\libc.a(lib_a-memmove.o)
 .debug_aranges
                0x00000368       0x20 f:/quatus/nios2eds/bin/gnu/h-i686-mingw32/bin/../lib/gcc/nios2-elf/4.1.2/../../../../nios2-elf/lib\libc.a(lib_a-memset.o)
 .debug_aranges
                0x00000388       0x20 f:/quatus/nios2eds/bin/gnu/h-i686-mingw32/bin/../lib/gcc/nios2-elf/4.1.2/../../../../nios2-elf/lib\libc.a(lib_a-mprec.o)
 .debug_aranges
                0x000003a8       0x20 f:/quatus/nios2eds/bin/gnu/h-i686-mingw32/bin/../lib/gcc/nios2-elf/4.1.2/../../../../nios2-elf/lib\libc.a(lib_a-reallocr.o)
 .debug_aranges
                0x000003c8       0x20 f:/quatus/nios2eds/bin/gnu/h-i686-mingw32/bin/../lib/gcc/nios2-elf/4.1.2/../../../../nios2-elf/lib\libc.a(lib_a-s_isinfd.o)
 .debug_aranges
                0x000003e8       0x20 f:/quatus/nios2eds/bin/gnu/h-i686-mingw32/bin/../lib/gcc/nios2-elf/4.1.2/../../../../nios2-elf/lib\libc.a(lib_a-s_isnand.o)
 .debug_aranges
                0x00000408       0x20 f:/quatus/nios2eds/bin/gnu/h-i686-mingw32/bin/../lib/gcc/nios2-elf/4.1.2/../../../../nios2-elf/lib\libc.a(lib_a-sbrkr.o)
 .debug_aranges
                0x00000428       0x20 f:/quatus/nios2eds/bin/gnu/h-i686-mingw32/bin/../lib/gcc/nios2-elf/4.1.2/../../../../nios2-elf/lib\libc.a(lib_a-stdio.o)
 .debug_aranges
                0x00000448       0x20 f:/quatus/nios2eds/bin/gnu/h-i686-mingw32/bin/../lib/gcc/nios2-elf/4.1.2/../../../../nios2-elf/lib\libc.a(lib_a-strcmp.o)
 .debug_aranges
                0x00000468       0x20 f:/quatus/nios2eds/bin/gnu/h-i686-mingw32/bin/../lib/gcc/nios2-elf/4.1.2/../../../../nios2-elf/lib\libc.a(lib_a-writer.o)
 .debug_aranges
                0x00000488       0x20 f:/quatus/nios2eds/bin/gnu/h-i686-mingw32/bin/../lib/gcc/nios2-elf/4.1.2/../../../../nios2-elf/lib\libc.a(lib_a-callocr.o)
 .debug_aranges
                0x000004a8       0x20 f:/quatus/nios2eds/bin/gnu/h-i686-mingw32/bin/../lib/gcc/nios2-elf/4.1.2/../../../../nios2-elf/lib\libc.a(lib_a-closer.o)
 .debug_aranges
                0x000004c8       0x20 f:/quatus/nios2eds/bin/gnu/h-i686-mingw32/bin/../lib/gcc/nios2-elf/4.1.2/../../../../nios2-elf/lib\libc.a(lib_a-fclose.o)
 .debug_aranges
                0x000004e8       0x20 f:/quatus/nios2eds/bin/gnu/h-i686-mingw32/bin/../lib/gcc/nios2-elf/4.1.2/../../../../nios2-elf/lib\libc.a(lib_a-fstatr.o)
 .debug_aranges
                0x00000508       0x20 f:/quatus/nios2eds/bin/gnu/h-i686-mingw32/bin/../lib/gcc/nios2-elf/4.1.2/../../../../nios2-elf/lib\libc.a(lib_a-isattyr.o)
 .debug_aranges
                0x00000528       0x20 f:/quatus/nios2eds/bin/gnu/h-i686-mingw32/bin/../lib/gcc/nios2-elf/4.1.2/../../../../nios2-elf/lib\libc.a(lib_a-lseekr.o)
 .debug_aranges
                0x00000548       0x20 f:/quatus/nios2eds/bin/gnu/h-i686-mingw32/bin/../lib/gcc/nios2-elf/4.1.2/../../../../nios2-elf/lib\libc.a(lib_a-readr.o)
 .debug_aranges
                0x00000568       0x20 f:/quatus/nios2eds/bin/gnu/h-i686-mingw32/bin/../lib/gcc/nios2-elf/4.1.2\libgcc.a(_udivdi3.o)
 .debug_aranges
                0x00000588       0x20 f:/quatus/nios2eds/bin/gnu/h-i686-mingw32/bin/../lib/gcc/nios2-elf/4.1.2\libgcc.a(_umoddi3.o)
 .debug_aranges
                0x000005a8       0x20 f:/quatus/nios2eds/bin/gnu/h-i686-mingw32/bin/../lib/gcc/nios2-elf/4.1.2\libgcc.a(_addsub_df.o)
 .debug_aranges
                0x000005c8       0x20 f:/quatus/nios2eds/bin/gnu/h-i686-mingw32/bin/../lib/gcc/nios2-elf/4.1.2\libgcc.a(_mul_df.o)
 .debug_aranges
                0x000005e8       0x20 f:/quatus/nios2eds/bin/gnu/h-i686-mingw32/bin/../lib/gcc/nios2-elf/4.1.2\libgcc.a(_div_df.o)
 .debug_aranges
                0x00000608       0x20 f:/quatus/nios2eds/bin/gnu/h-i686-mingw32/bin/../lib/gcc/nios2-elf/4.1.2\libgcc.a(_eq_df.o)
 .debug_aranges
                0x00000628       0x20 f:/quatus/nios2eds/bin/gnu/h-i686-mingw32/bin/../lib/gcc/nios2-elf/4.1.2\libgcc.a(_ne_df.o)
 .debug_aranges
                0x00000648       0x20 f:/quatus/nios2eds/bin/gnu/h-i686-mingw32/bin/../lib/gcc/nios2-elf/4.1.2\libgcc.a(_gt_df.o)
 .debug_aranges
                0x00000668       0x20 f:/quatus/nios2eds/bin/gnu/h-i686-mingw32/bin/../lib/gcc/nios2-elf/4.1.2\libgcc.a(_ge_df.o)
 .debug_aranges
                0x00000688       0x20 f:/quatus/nios2eds/bin/gnu/h-i686-mingw32/bin/../lib/gcc/nios2-elf/4.1.2\libgcc.a(_lt_df.o)
 .debug_aranges
                0x000006a8       0x20 f:/quatus/nios2eds/bin/gnu/h-i686-mingw32/bin/../lib/gcc/nios2-elf/4.1.2\libgcc.a(_si_to_df.o)
 .debug_aranges
                0x000006c8       0x20 f:/quatus/nios2eds/bin/gnu/h-i686-mingw32/bin/../lib/gcc/nios2-elf/4.1.2\libgcc.a(_df_to_si.o)
 .debug_aranges
                0x000006e8       0x20 f:/quatus/nios2eds/bin/gnu/h-i686-mingw32/bin/../lib/gcc/nios2-elf/4.1.2\libgcc.a(_usi_to_df.o)
 .debug_aranges
                0x00000708       0x20 f:/quatus/nios2eds/bin/gnu/h-i686-mingw32/bin/../lib/gcc/nios2-elf/4.1.2\libgcc.a(_clzsi2.o)
 .debug_aranges
                0x00000728       0x20 f:/quatus/nios2eds/bin/gnu/h-i686-mingw32/bin/../lib/gcc/nios2-elf/4.1.2\libgcc.a(_pack_df.o)
 .debug_aranges
                0x00000748       0x20 f:/quatus/nios2eds/bin/gnu/h-i686-mingw32/bin/../lib/gcc/nios2-elf/4.1.2\libgcc.a(_unpack_df.o)
 .debug_aranges
                0x00000768       0x20 f:/quatus/nios2eds/bin/gnu/h-i686-mingw32/bin/../lib/gcc/nios2-elf/4.1.2\libgcc.a(_fpcmp_parts_df.o)
 .debug_aranges
                0x00000788       0x20 ../homework_bsp/\libhal_bsp.a(alt_close.o)
 .debug_aranges
                0x000007a8       0x20 ../homework_bsp/\libhal_bsp.a(alt_dev.o)
 .debug_aranges
                0x000007c8       0x20 ../homework_bsp/\libhal_bsp.a(alt_fstat.o)
 .debug_aranges
                0x000007e8       0x20 ../homework_bsp/\libhal_bsp.a(alt_irq_register.o)
 .debug_aranges
                0x00000808       0x20 ../homework_bsp/\libhal_bsp.a(alt_isatty.o)
 .debug_aranges
                0x00000828       0x20 ../homework_bsp/\libhal_bsp.a(alt_load.o)
 .debug_aranges
                0x00000848       0x20 ../homework_bsp/\libhal_bsp.a(alt_lseek.o)
 .debug_aranges
                0x00000868       0x20 ../homework_bsp/\libhal_bsp.a(alt_main.o)
 .debug_aranges
                0x00000888       0x20 ../homework_bsp/\libhal_bsp.a(alt_malloc_lock.o)
 .debug_aranges
                0x000008a8       0x20 ../homework_bsp/\libhal_bsp.a(alt_read.o)
 .debug_aranges
                0x000008c8       0x20 ../homework_bsp/\libhal_bsp.a(alt_release_fd.o)
 .debug_aranges
                0x000008e8       0x20 ../homework_bsp/\libhal_bsp.a(alt_sbrk.o)
 .debug_aranges
                0x00000908       0x20 ../homework_bsp/\libhal_bsp.a(alt_write.o)
 .debug_aranges
                0x00000928       0x20 ../homework_bsp/\libhal_bsp.a(alt_sys_init.o)
 .debug_aranges
                0x00000948       0x20 ../homework_bsp/\libhal_bsp.a(altera_avalon_dma.o)
 .debug_aranges
                0x00000968       0x20 ../homework_bsp/\libhal_bsp.a(altera_avalon_jtag_uart_fd.o)
 .debug_aranges
                0x00000988       0x20 ../homework_bsp/\libhal_bsp.a(altera_avalon_jtag_uart_init.o)
 .debug_aranges
                0x000009a8       0x20 ../homework_bsp/\libhal_bsp.a(altera_avalon_jtag_uart_ioctl.o)
 .debug_aranges
                0x000009c8       0x20 ../homework_bsp/\libhal_bsp.a(altera_avalon_jtag_uart_read.o)
 .debug_aranges
                0x000009e8       0x20 ../homework_bsp/\libhal_bsp.a(altera_avalon_jtag_uart_write.o)
 .debug_aranges
                0x00000a08       0x20 ../homework_bsp/\libhal_bsp.a(altera_avalon_uart_fd.o)
 .debug_aranges
                0x00000a28       0x20 ../homework_bsp/\libhal_bsp.a(altera_avalon_uart_init.o)
 .debug_aranges
                0x00000a48       0x20 ../homework_bsp/\libhal_bsp.a(altera_avalon_uart_read.o)
 .debug_aranges
                0x00000a68       0x20 ../homework_bsp/\libhal_bsp.a(altera_avalon_uart_write.o)
 .debug_aranges
                0x00000a88       0x20 ../homework_bsp/\libhal_bsp.a(alt_alarm_start.o)
 .debug_aranges
                0x00000aa8       0x20 ../homework_bsp/\libhal_bsp.a(alt_dcache_flush_all.o)
 .debug_aranges
                0x00000ac8       0x20 ../homework_bsp/\libhal_bsp.a(alt_dev_llist_insert.o)
 .debug_aranges
                0x00000ae8       0x20 ../homework_bsp/\libhal_bsp.a(alt_dma_rxchan_open.o)
 .debug_aranges
                0x00000b08       0x20 ../homework_bsp/\libhal_bsp.a(alt_dma_txchan_open.o)
 .debug_aranges
                0x00000b28       0x20 ../homework_bsp/\libhal_bsp.a(alt_do_ctors.o)
 .debug_aranges
                0x00000b48       0x20 ../homework_bsp/\libhal_bsp.a(alt_do_dtors.o)
 .debug_aranges
                0x00000b68       0x20 ../homework_bsp/\libhal_bsp.a(alt_find_dev.o)
 .debug_aranges
                0x00000b88       0x20 ../homework_bsp/\libhal_bsp.a(alt_icache_flush_all.o)
 .debug_aranges
                0x00000ba8       0x20 ../homework_bsp/\libhal_bsp.a(alt_iic.o)
 .debug_aranges
                0x00000bc8       0x20 ../homework_bsp/\libhal_bsp.a(alt_iic_isr_register.o)
 .debug_aranges
                0x00000be8       0x20 ../homework_bsp/\libhal_bsp.a(alt_io_redirect.o)
 .debug_aranges
                0x00000c08       0x30 ../homework_bsp/\libhal_bsp.a(alt_irq_entry.o)
 .debug_aranges
                0x00000c38       0x28 ../homework_bsp/\libhal_bsp.a(alt_irq_handler.o)
 .debug_aranges
                0x00000c60       0x20 ../homework_bsp/\libhal_bsp.a(alt_open.o)
 .debug_aranges
                0x00000c80       0x20 ../homework_bsp/\libhal_bsp.a(alt_tick.o)
 .debug_aranges
                0x00000ca0       0x20 ../homework_bsp/\libhal_bsp.a(altera_nios2_qsys_irq.o)
 .debug_aranges
                0x00000cc0       0x38 ../homework_bsp/\libhal_bsp.a(alt_exception_entry.o)
 .debug_aranges
                0x00000cf8       0x20 ../homework_bsp/\libhal_bsp.a(alt_find_file.o)
 .debug_aranges
                0x00000d18       0x20 ../homework_bsp/\libhal_bsp.a(alt_get_fd.o)
 .debug_aranges
                0x00000d38       0x20 ../homework_bsp/\libhal_bsp.a(alt_icache_flush.o)
 .debug_aranges
                0x00000d58       0x20 f:/quatus/nios2eds/bin/gnu/h-i686-mingw32/bin/../lib/gcc/nios2-elf/4.1.2/../../../../nios2-elf/lib\libc.a(lib_a-atexit.o)
 .debug_aranges
                0x00000d78       0x20 f:/quatus/nios2eds/bin/gnu/h-i686-mingw32/bin/../lib/gcc/nios2-elf/4.1.2/../../../../nios2-elf/lib\libc.a(lib_a-exit.o)
 .debug_aranges
                0x00000d98       0x20 f:/quatus/nios2eds/bin/gnu/h-i686-mingw32/bin/../lib/gcc/nios2-elf/4.1.2/../../../../nios2-elf/lib\libc.a(lib_a-memcmp.o)
 .debug_aranges
                0x00000db8       0x20 f:/quatus/nios2eds/bin/gnu/h-i686-mingw32/bin/../lib/gcc/nios2-elf/4.1.2/../../../../nios2-elf/lib\libc.a(lib_a-__atexit.o)
 .debug_aranges
                0x00000dd8       0x20 f:/quatus/nios2eds/bin/gnu/h-i686-mingw32/bin/../lib/gcc/nios2-elf/4.1.2/../../../../nios2-elf/lib\libc.a(lib_a-__call_atexit.o)
 .debug_aranges
                0x00000df8       0x20 ../homework_bsp/\libhal_bsp.a(alt_exit.o)

.debug_pubnames
                0x00000000     0x1726
 *(.debug_pubnames)
 .debug_pubnames
                0x00000000       0x1b obj/default/hello_world.o
 .debug_pubnames
                0x0000001b       0x62 obj/default/pio.o
 .debug_pubnames
                0x0000007d       0x43 obj/default/timebt.o
 .debug_pubnames
                0x000000c0       0x1f f:/quatus/nios2eds/bin/gnu/h-i686-mingw32/bin/../lib/gcc/nios2-elf/4.1.2\libgcc.a(_mul_sf.o)
 .debug_pubnames
                0x000000df       0x20 f:/quatus/nios2eds/bin/gnu/h-i686-mingw32/bin/../lib/gcc/nios2-elf/4.1.2\libgcc.a(_sf_to_si.o)
 .debug_pubnames
                0x000000ff       0x22 f:/quatus/nios2eds/bin/gnu/h-i686-mingw32/bin/../lib/gcc/nios2-elf/4.1.2\libgcc.a(_thenan_sf.o)
 .debug_pubnames
                0x00000121       0x48 f:/quatus/nios2eds/bin/gnu/h-i686-mingw32/bin/../lib/gcc/nios2-elf/4.1.2\libgcc.a(lib2-divmod.o)
 .debug_pubnames
                0x00000169       0x1f f:/quatus/nios2eds/bin/gnu/h-i686-mingw32/bin/../lib/gcc/nios2-elf/4.1.2\libgcc.a(_muldi3.o)
 .debug_pubnames
                0x00000188       0x1f f:/quatus/nios2eds/bin/gnu/h-i686-mingw32/bin/../lib/gcc/nios2-elf/4.1.2\libgcc.a(_pack_sf.o)
 .debug_pubnames
                0x000001a7       0x21 f:/quatus/nios2eds/bin/gnu/h-i686-mingw32/bin/../lib/gcc/nios2-elf/4.1.2\libgcc.a(_unpack_sf.o)
 .debug_pubnames
                0x000001c8       0x2b f:/quatus/nios2eds/bin/gnu/h-i686-mingw32/bin/../lib/gcc/nios2-elf/4.1.2/../../../../nios2-elf/lib\libc.a(lib_a-printf.o)
 .debug_pubnames
                0x000001f3       0x27 f:/quatus/nios2eds/bin/gnu/h-i686-mingw32/bin/../lib/gcc/nios2-elf/4.1.2/../../../../nios2-elf/lib\libc.a(lib_a-puts.o)
 .debug_pubnames
                0x0000021a       0x1d f:/quatus/nios2eds/bin/gnu/h-i686-mingw32/bin/../lib/gcc/nios2-elf/4.1.2/../../../../nios2-elf/lib\libc.a(lib_a-strlen.o)
 .debug_pubnames
                0x00000237       0x45 f:/quatus/nios2eds/bin/gnu/h-i686-mingw32/bin/../lib/gcc/nios2-elf/4.1.2/../../../../nios2-elf/lib\libc.a(lib_a-vfprintf.o)
 .debug_pubnames
                0x0000027c       0x22 f:/quatus/nios2eds/bin/gnu/h-i686-mingw32/bin/../lib/gcc/nios2-elf/4.1.2/../../../../nios2-elf/lib\libc.a(lib_a-wsetup.o)
 .debug_pubnames
                0x0000029e       0x1e f:/quatus/nios2eds/bin/gnu/h-i686-mingw32/bin/../lib/gcc/nios2-elf/4.1.2/../../../../nios2-elf/lib\libc.a(lib_a-dtoa.o)
 .debug_pubnames
                0x000002bc       0x2b f:/quatus/nios2eds/bin/gnu/h-i686-mingw32/bin/../lib/gcc/nios2-elf/4.1.2/../../../../nios2-elf/lib\libc.a(lib_a-fflush.o)
 .debug_pubnames
                0x000002e7       0xdb f:/quatus/nios2eds/bin/gnu/h-i686-mingw32/bin/../lib/gcc/nios2-elf/4.1.2/../../../../nios2-elf/lib\libc.a(lib_a-findfp.o)
 .debug_pubnames
                0x000003c2       0x31 f:/quatus/nios2eds/bin/gnu/h-i686-mingw32/bin/../lib/gcc/nios2-elf/4.1.2/../../../../nios2-elf/lib\libc.a(lib_a-freer.o)
 .debug_pubnames
                0x000003f3       0x23 f:/quatus/nios2eds/bin/gnu/h-i686-mingw32/bin/../lib/gcc/nios2-elf/4.1.2/../../../../nios2-elf/lib\libc.a(lib_a-fvwrite.o)
 .debug_pubnames
                0x00000416       0x2e f:/quatus/nios2eds/bin/gnu/h-i686-mingw32/bin/../lib/gcc/nios2-elf/4.1.2/../../../../nios2-elf/lib\libc.a(lib_a-fwalk.o)
 .debug_pubnames
                0x00000444       0x39 f:/quatus/nios2eds/bin/gnu/h-i686-mingw32/bin/../lib/gcc/nios2-elf/4.1.2/../../../../nios2-elf/lib\libc.a(lib_a-impure.o)
 .debug_pubnames
                0x0000047d       0xc3 f:/quatus/nios2eds/bin/gnu/h-i686-mingw32/bin/../lib/gcc/nios2-elf/4.1.2/../../../../nios2-elf/lib\libc.a(lib_a-locale.o)
 .debug_pubnames
                0x00000540       0x23 f:/quatus/nios2eds/bin/gnu/h-i686-mingw32/bin/../lib/gcc/nios2-elf/4.1.2/../../../../nios2-elf/lib\libc.a(lib_a-makebuf.o)
 .debug_pubnames
                0x00000563       0xce f:/quatus/nios2eds/bin/gnu/h-i686-mingw32/bin/../lib/gcc/nios2-elf/4.1.2/../../../../nios2-elf/lib\libc.a(lib_a-mallocr.o)
 .debug_pubnames
                0x00000631       0x1d f:/quatus/nios2eds/bin/gnu/h-i686-mingw32/bin/../lib/gcc/nios2-elf/4.1.2/../../../../nios2-elf/lib\libc.a(lib_a-memchr.o)
 .debug_pubnames
                0x0000064e       0x1d f:/quatus/nios2eds/bin/gnu/h-i686-mingw32/bin/../lib/gcc/nios2-elf/4.1.2/../../../../nios2-elf/lib\libc.a(lib_a-memcpy.o)
 .debug_pubnames
                0x0000066b       0x1e f:/quatus/nios2eds/bin/gnu/h-i686-mingw32/bin/../lib/gcc/nios2-elf/4.1.2/../../../../nios2-elf/lib\libc.a(lib_a-memmove.o)
 .debug_pubnames
                0x00000689       0x1d f:/quatus/nios2eds/bin/gnu/h-i686-mingw32/bin/../lib/gcc/nios2-elf/4.1.2/../../../../nios2-elf/lib\libc.a(lib_a-memset.o)
 .debug_pubnames
                0x000006a6      0x13a f:/quatus/nios2eds/bin/gnu/h-i686-mingw32/bin/../lib/gcc/nios2-elf/4.1.2/../../../../nios2-elf/lib\libc.a(lib_a-mprec.o)
 .debug_pubnames
                0x000007e0       0x21 f:/quatus/nios2eds/bin/gnu/h-i686-mingw32/bin/../lib/gcc/nios2-elf/4.1.2/../../../../nios2-elf/lib\libc.a(lib_a-reallocr.o)
 .debug_pubnames
                0x00000801       0x1f f:/quatus/nios2eds/bin/gnu/h-i686-mingw32/bin/../lib/gcc/nios2-elf/4.1.2/../../../../nios2-elf/lib\libc.a(lib_a-s_isinfd.o)
 .debug_pubnames
                0x00000820       0x1f f:/quatus/nios2eds/bin/gnu/h-i686-mingw32/bin/../lib/gcc/nios2-elf/4.1.2/../../../../nios2-elf/lib\libc.a(lib_a-s_isnand.o)
 .debug_pubnames
                0x0000083f       0x1e f:/quatus/nios2eds/bin/gnu/h-i686-mingw32/bin/../lib/gcc/nios2-elf/4.1.2/../../../../nios2-elf/lib\libc.a(lib_a-sbrkr.o)
 .debug_pubnames
                0x0000085d       0x44 f:/quatus/nios2eds/bin/gnu/h-i686-mingw32/bin/../lib/gcc/nios2-elf/4.1.2/../../../../nios2-elf/lib\libc.a(lib_a-stdio.o)
 .debug_pubnames
                0x000008a1       0x1d f:/quatus/nios2eds/bin/gnu/h-i686-mingw32/bin/../lib/gcc/nios2-elf/4.1.2/../../../../nios2-elf/lib\libc.a(lib_a-strcmp.o)
 .debug_pubnames
                0x000008be       0x1f f:/quatus/nios2eds/bin/gnu/h-i686-mingw32/bin/../lib/gcc/nios2-elf/4.1.2/../../../../nios2-elf/lib\libc.a(lib_a-writer.o)
 .debug_pubnames
                0x000008dd       0x20 f:/quatus/nios2eds/bin/gnu/h-i686-mingw32/bin/../lib/gcc/nios2-elf/4.1.2/../../../../nios2-elf/lib\libc.a(lib_a-callocr.o)
 .debug_pubnames
                0x000008fd       0x1f f:/quatus/nios2eds/bin/gnu/h-i686-mingw32/bin/../lib/gcc/nios2-elf/4.1.2/../../../../nios2-elf/lib\libc.a(lib_a-closer.o)
 .debug_pubnames
                0x0000091c       0x2b f:/quatus/nios2eds/bin/gnu/h-i686-mingw32/bin/../lib/gcc/nios2-elf/4.1.2/../../../../nios2-elf/lib\libc.a(lib_a-fclose.o)
 .debug_pubnames
                0x00000947       0x1f f:/quatus/nios2eds/bin/gnu/h-i686-mingw32/bin/../lib/gcc/nios2-elf/4.1.2/../../../../nios2-elf/lib\libc.a(lib_a-fstatr.o)
 .debug_pubnames
                0x00000966       0x1c f:/quatus/nios2eds/bin/gnu/h-i686-mingw32/bin/../lib/gcc/nios2-elf/4.1.2/../../../../nios2-elf/lib\libc.a(lib_a-int_errno.o)
 .debug_pubnames
                0x00000982       0x20 f:/quatus/nios2eds/bin/gnu/h-i686-mingw32/bin/../lib/gcc/nios2-elf/4.1.2/../../../../nios2-elf/lib\libc.a(lib_a-isattyr.o)
 .debug_pubnames
                0x000009a2       0x1f f:/quatus/nios2eds/bin/gnu/h-i686-mingw32/bin/../lib/gcc/nios2-elf/4.1.2/../../../../nios2-elf/lib\libc.a(lib_a-lseekr.o)
 .debug_pubnames
                0x000009c1       0x1e f:/quatus/nios2eds/bin/gnu/h-i686-mingw32/bin/../lib/gcc/nios2-elf/4.1.2/../../../../nios2-elf/lib\libc.a(lib_a-readr.o)
 .debug_pubnames
                0x000009df       0x20 f:/quatus/nios2eds/bin/gnu/h-i686-mingw32/bin/../lib/gcc/nios2-elf/4.1.2\libgcc.a(_udivdi3.o)
 .debug_pubnames
                0x000009ff       0x20 f:/quatus/nios2eds/bin/gnu/h-i686-mingw32/bin/../lib/gcc/nios2-elf/4.1.2\libgcc.a(_umoddi3.o)
 .debug_pubnames
                0x00000a1f       0x2c f:/quatus/nios2eds/bin/gnu/h-i686-mingw32/bin/../lib/gcc/nios2-elf/4.1.2\libgcc.a(_addsub_df.o)
 .debug_pubnames
                0x00000a4b       0x1f f:/quatus/nios2eds/bin/gnu/h-i686-mingw32/bin/../lib/gcc/nios2-elf/4.1.2\libgcc.a(_mul_df.o)
 .debug_pubnames
                0x00000a6a       0x1f f:/quatus/nios2eds/bin/gnu/h-i686-mingw32/bin/../lib/gcc/nios2-elf/4.1.2\libgcc.a(_div_df.o)
 .debug_pubnames
                0x00000a89       0x1e f:/quatus/nios2eds/bin/gnu/h-i686-mingw32/bin/../lib/gcc/nios2-elf/4.1.2\libgcc.a(_eq_df.o)
 .debug_pubnames
                0x00000aa7       0x1e f:/quatus/nios2eds/bin/gnu/h-i686-mingw32/bin/../lib/gcc/nios2-elf/4.1.2\libgcc.a(_ne_df.o)
 .debug_pubnames
                0x00000ac5       0x1e f:/quatus/nios2eds/bin/gnu/h-i686-mingw32/bin/../lib/gcc/nios2-elf/4.1.2\libgcc.a(_gt_df.o)
 .debug_pubnames
                0x00000ae3       0x1e f:/quatus/nios2eds/bin/gnu/h-i686-mingw32/bin/../lib/gcc/nios2-elf/4.1.2\libgcc.a(_ge_df.o)
 .debug_pubnames
                0x00000b01       0x1e f:/quatus/nios2eds/bin/gnu/h-i686-mingw32/bin/../lib/gcc/nios2-elf/4.1.2\libgcc.a(_lt_df.o)
 .debug_pubnames
                0x00000b1f       0x22 f:/quatus/nios2eds/bin/gnu/h-i686-mingw32/bin/../lib/gcc/nios2-elf/4.1.2\libgcc.a(_si_to_df.o)
 .debug_pubnames
                0x00000b41       0x20 f:/quatus/nios2eds/bin/gnu/h-i686-mingw32/bin/../lib/gcc/nios2-elf/4.1.2\libgcc.a(_df_to_si.o)
 .debug_pubnames
                0x00000b61       0x22 f:/quatus/nios2eds/bin/gnu/h-i686-mingw32/bin/../lib/gcc/nios2-elf/4.1.2\libgcc.a(_thenan_df.o)
 .debug_pubnames
                0x00000b83       0x24 f:/quatus/nios2eds/bin/gnu/h-i686-mingw32/bin/../lib/gcc/nios2-elf/4.1.2\libgcc.a(_usi_to_df.o)
 .debug_pubnames
                0x00000ba7       0x20 f:/quatus/nios2eds/bin/gnu/h-i686-mingw32/bin/../lib/gcc/nios2-elf/4.1.2\libgcc.a(_clz.o)
 .debug_pubnames
                0x00000bc7       0x1f f:/quatus/nios2eds/bin/gnu/h-i686-mingw32/bin/../lib/gcc/nios2-elf/4.1.2\libgcc.a(_clzsi2.o)
 .debug_pubnames
                0x00000be6       0x1f f:/quatus/nios2eds/bin/gnu/h-i686-mingw32/bin/../lib/gcc/nios2-elf/4.1.2\libgcc.a(_pack_df.o)
 .debug_pubnames
                0x00000c05       0x21 f:/quatus/nios2eds/bin/gnu/h-i686-mingw32/bin/../lib/gcc/nios2-elf/4.1.2\libgcc.a(_unpack_df.o)
 .debug_pubnames
                0x00000c26       0x26 f:/quatus/nios2eds/bin/gnu/h-i686-mingw32/bin/../lib/gcc/nios2-elf/4.1.2\libgcc.a(_fpcmp_parts_df.o)
 .debug_pubnames
                0x00000c4c       0x1c ../homework_bsp/\libhal_bsp.a(alt_close.o)
 .debug_pubnames
                0x00000c68       0x63 ../homework_bsp/\libhal_bsp.a(alt_dev.o)
 .debug_pubnames
                0x00000ccb       0x20 ../homework_bsp/\libhal_bsp.a(alt_errno.o)
 .debug_pubnames
                0x00000ceb       0x1c ../homework_bsp/\libhal_bsp.a(alt_fstat.o)
 .debug_pubnames
                0x00000d07       0x27 ../homework_bsp/\libhal_bsp.a(alt_irq_register.o)
 .debug_pubnames
                0x00000d2e       0x3b ../homework_bsp/\libhal_bsp.a(alt_irq_vars.o)
 .debug_pubnames
                0x00000d69       0x1d ../homework_bsp/\libhal_bsp.a(alt_isatty.o)
 .debug_pubnames
                0x00000d86       0x1f ../homework_bsp/\libhal_bsp.a(alt_load.o)
 .debug_pubnames
                0x00000da5       0x1c ../homework_bsp/\libhal_bsp.a(alt_lseek.o)
 .debug_pubnames
                0x00000dc1       0x46 ../homework_bsp/\libhal_bsp.a(alt_main.o)
 .debug_pubnames
                0x00000e07       0x38 ../homework_bsp/\libhal_bsp.a(alt_malloc_lock.o)
 .debug_pubnames
                0x00000e3f       0x1b ../homework_bsp/\libhal_bsp.a(alt_read.o)
 .debug_pubnames
                0x00000e5a       0x25 ../homework_bsp/\libhal_bsp.a(alt_release_fd.o)
 .debug_pubnames
                0x00000e7f       0x1b ../homework_bsp/\libhal_bsp.a(alt_sbrk.o)
 .debug_pubnames
                0x00000e9a       0x1c ../homework_bsp/\libhal_bsp.a(alt_write.o)
 .debug_pubnames
                0x00000eb6       0x34 ../homework_bsp/\libhal_bsp.a(alt_sys_init.o)
 .debug_pubnames
                0x00000eea       0xce ../homework_bsp/\libhal_bsp.a(altera_avalon_dma.o)
 .debug_pubnames
                0x00000fb8       0xa5 ../homework_bsp/\libhal_bsp.a(altera_avalon_jtag_uart_fd.o)
 .debug_pubnames
                0x0000105d       0x55 ../homework_bsp/\libhal_bsp.a(altera_avalon_jtag_uart_init.o)
 .debug_pubnames
                0x000010b2       0x34 ../homework_bsp/\libhal_bsp.a(altera_avalon_jtag_uart_ioctl.o)
 .debug_pubnames
                0x000010e6       0x33 ../homework_bsp/\libhal_bsp.a(altera_avalon_jtag_uart_read.o)
 .debug_pubnames
                0x00001119       0x34 ../homework_bsp/\libhal_bsp.a(altera_avalon_jtag_uart_write.o)
 .debug_pubnames
                0x0000114d       0x52 ../homework_bsp/\libhal_bsp.a(altera_avalon_timer_vars.o)
 .debug_pubnames
                0x0000119f       0x71 ../homework_bsp/\libhal_bsp.a(altera_avalon_uart_fd.o)
 .debug_pubnames
                0x00001210       0x4b ../homework_bsp/\libhal_bsp.a(altera_avalon_uart_init.o)
 .debug_pubnames
                0x0000125b       0x2e ../homework_bsp/\libhal_bsp.a(altera_avalon_uart_read.o)
 .debug_pubnames
                0x00001289       0x2f ../homework_bsp/\libhal_bsp.a(altera_avalon_uart_write.o)
 .debug_pubnames
                0x000012b8       0x26 ../homework_bsp/\libhal_bsp.a(alt_alarm_start.o)
 .debug_pubnames
                0x000012de       0x2b ../homework_bsp/\libhal_bsp.a(alt_dcache_flush_all.o)
 .debug_pubnames
                0x00001309       0x2b ../homework_bsp/\libhal_bsp.a(alt_dev_llist_insert.o)
 .debug_pubnames
                0x00001334       0x42 ../homework_bsp/\libhal_bsp.a(alt_dma_rxchan_open.o)
 .debug_pubnames
                0x00001376       0x42 ../homework_bsp/\libhal_bsp.a(alt_dma_txchan_open.o)
 .debug_pubnames
                0x000013b8       0x20 ../homework_bsp/\libhal_bsp.a(alt_do_ctors.o)
 .debug_pubnames
                0x000013d8       0x20 ../homework_bsp/\libhal_bsp.a(alt_do_dtors.o)
 .debug_pubnames
                0x000013f8       0x23 ../homework_bsp/\libhal_bsp.a(alt_find_dev.o)
 .debug_pubnames
                0x0000141b       0x2b ../homework_bsp/\libhal_bsp.a(alt_icache_flush_all.o)
 .debug_pubnames
                0x00001446       0x6e ../homework_bsp/\libhal_bsp.a(alt_iic.o)
 .debug_pubnames
                0x000014b4       0x2b ../homework_bsp/\libhal_bsp.a(alt_iic_isr_register.o)
 .debug_pubnames
                0x000014df       0x26 ../homework_bsp/\libhal_bsp.a(alt_io_redirect.o)
 .debug_pubnames
                0x00001505       0x32 ../homework_bsp/\libhal_bsp.a(alt_irq_handler.o)
 .debug_pubnames
                0x00001537       0x1b ../homework_bsp/\libhal_bsp.a(alt_open.o)
 .debug_pubnames
                0x00001552       0x68 ../homework_bsp/\libhal_bsp.a(alt_tick.o)
 .debug_pubnames
                0x000015ba       0x31 ../homework_bsp/\libhal_bsp.a(altera_nios2_qsys_irq.o)
 .debug_pubnames
                0x000015eb       0x24 ../homework_bsp/\libhal_bsp.a(alt_find_file.o)
 .debug_pubnames
                0x0000160f       0x21 ../homework_bsp/\libhal_bsp.a(alt_get_fd.o)
 .debug_pubnames
                0x00001630       0x27 ../homework_bsp/\libhal_bsp.a(alt_icache_flush.o)
 .debug_pubnames
                0x00001657       0x2a f:/quatus/nios2eds/bin/gnu/h-i686-mingw32/bin/../lib/gcc/nios2-elf/4.1.2/../../../../nios2-elf/lib\libc.a(lib_a-atexit.o)
 .debug_pubnames
                0x00001681       0x1b f:/quatus/nios2eds/bin/gnu/h-i686-mingw32/bin/../lib/gcc/nios2-elf/4.1.2/../../../../nios2-elf/lib\libc.a(lib_a-exit.o)
 .debug_pubnames
                0x0000169c       0x1d f:/quatus/nios2eds/bin/gnu/h-i686-mingw32/bin/../lib/gcc/nios2-elf/4.1.2/../../../../nios2-elf/lib\libc.a(lib_a-memcmp.o)
 .debug_pubnames
                0x000016b9       0x2a f:/quatus/nios2eds/bin/gnu/h-i686-mingw32/bin/../lib/gcc/nios2-elf/4.1.2/../../../../nios2-elf/lib\libc.a(lib_a-__atexit.o)
 .debug_pubnames
                0x000016e3       0x27 f:/quatus/nios2eds/bin/gnu/h-i686-mingw32/bin/../lib/gcc/nios2-elf/4.1.2/../../../../nios2-elf/lib\libc.a(lib_a-__call_atexit.o)
 .debug_pubnames
                0x0000170a       0x1c ../homework_bsp/\libhal_bsp.a(alt_exit.o)

.debug_info     0x00000000    0x26ebf
 *(.debug_info .gnu.linkonce.wi.*)
 .debug_info    0x00000000       0x67 ../homework_bsp//obj/HAL/src/crt0.o
 .debug_info    0x00000067      0x17f obj/default/hello_world.o
 .debug_info    0x000001e6      0x308 obj/default/pio.o
 .debug_info    0x000004ee      0x347 obj/default/timebt.o
 .debug_info    0x00000835      0x3d4 f:/quatus/nios2eds/bin/gnu/h-i686-mingw32/bin/../lib/gcc/nios2-elf/4.1.2\libgcc.a(_mul_sf.o)
 .debug_info    0x00000c09      0x2c1 f:/quatus/nios2eds/bin/gnu/h-i686-mingw32/bin/../lib/gcc/nios2-elf/4.1.2\libgcc.a(_sf_to_si.o)
 .debug_info    0x00000eca      0x164 f:/quatus/nios2eds/bin/gnu/h-i686-mingw32/bin/../lib/gcc/nios2-elf/4.1.2\libgcc.a(_thenan_sf.o)
 .debug_info    0x0000102e      0x21c f:/quatus/nios2eds/bin/gnu/h-i686-mingw32/bin/../lib/gcc/nios2-elf/4.1.2\libgcc.a(lib2-divmod.o)
 .debug_info    0x0000124a      0x215 f:/quatus/nios2eds/bin/gnu/h-i686-mingw32/bin/../lib/gcc/nios2-elf/4.1.2\libgcc.a(_muldi3.o)
 .debug_info    0x0000145f      0x2f2 f:/quatus/nios2eds/bin/gnu/h-i686-mingw32/bin/../lib/gcc/nios2-elf/4.1.2\libgcc.a(_pack_sf.o)
 .debug_info    0x00001751      0x25a f:/quatus/nios2eds/bin/gnu/h-i686-mingw32/bin/../lib/gcc/nios2-elf/4.1.2\libgcc.a(_unpack_sf.o)
 .debug_info    0x000019ab      0x9d1 f:/quatus/nios2eds/bin/gnu/h-i686-mingw32/bin/../lib/gcc/nios2-elf/4.1.2/../../../../nios2-elf/lib\libc.a(lib_a-printf.o)
 .debug_info    0x0000237c      0xa25 f:/quatus/nios2eds/bin/gnu/h-i686-mingw32/bin/../lib/gcc/nios2-elf/4.1.2/../../../../nios2-elf/lib\libc.a(lib_a-puts.o)
 .debug_info    0x00002da1       0xdb f:/quatus/nios2eds/bin/gnu/h-i686-mingw32/bin/../lib/gcc/nios2-elf/4.1.2/../../../../nios2-elf/lib\libc.a(lib_a-strlen.o)
 .debug_info    0x00002e7c     0x10d5 f:/quatus/nios2eds/bin/gnu/h-i686-mingw32/bin/../lib/gcc/nios2-elf/4.1.2/../../../../nios2-elf/lib\libc.a(lib_a-vfprintf.o)
 .debug_info    0x00003f51      0x95d f:/quatus/nios2eds/bin/gnu/h-i686-mingw32/bin/../lib/gcc/nios2-elf/4.1.2/../../../../nios2-elf/lib\libc.a(lib_a-wsetup.o)
 .debug_info    0x000048ae      0xd6f f:/quatus/nios2eds/bin/gnu/h-i686-mingw32/bin/../lib/gcc/nios2-elf/4.1.2/../../../../nios2-elf/lib\libc.a(lib_a-dtoa.o)
 .debug_info    0x0000561d      0x9fe f:/quatus/nios2eds/bin/gnu/h-i686-mingw32/bin/../lib/gcc/nios2-elf/4.1.2/../../../../nios2-elf/lib\libc.a(lib_a-fflush.o)
 .debug_info    0x0000601b      0xb72 f:/quatus/nios2eds/bin/gnu/h-i686-mingw32/bin/../lib/gcc/nios2-elf/4.1.2/../../../../nios2-elf/lib\libc.a(lib_a-findfp.o)
 .debug_info    0x00006b8d      0xbc9 f:/quatus/nios2eds/bin/gnu/h-i686-mingw32/bin/../lib/gcc/nios2-elf/4.1.2/../../../../nios2-elf/lib\libc.a(lib_a-freer.o)
 .debug_info    0x00007756      0xa88 f:/quatus/nios2eds/bin/gnu/h-i686-mingw32/bin/../lib/gcc/nios2-elf/4.1.2/../../../../nios2-elf/lib\libc.a(lib_a-fvwrite.o)
 .debug_info    0x000081de      0xaed f:/quatus/nios2eds/bin/gnu/h-i686-mingw32/bin/../lib/gcc/nios2-elf/4.1.2/../../../../nios2-elf/lib\libc.a(lib_a-fwalk.o)
 .debug_info    0x00008ccb      0x93d f:/quatus/nios2eds/bin/gnu/h-i686-mingw32/bin/../lib/gcc/nios2-elf/4.1.2/../../../../nios2-elf/lib\libc.a(lib_a-impure.o)
 .debug_info    0x00009608      0xb97 f:/quatus/nios2eds/bin/gnu/h-i686-mingw32/bin/../lib/gcc/nios2-elf/4.1.2/../../../../nios2-elf/lib\libc.a(lib_a-locale.o)
 .debug_info    0x0000a19f      0xb1a f:/quatus/nios2eds/bin/gnu/h-i686-mingw32/bin/../lib/gcc/nios2-elf/4.1.2/../../../../nios2-elf/lib\libc.a(lib_a-makebuf.o)
 .debug_info    0x0000acb9      0xcd0 f:/quatus/nios2eds/bin/gnu/h-i686-mingw32/bin/../lib/gcc/nios2-elf/4.1.2/../../../../nios2-elf/lib\libc.a(lib_a-mallocr.o)
 .debug_info    0x0000b989      0x138 f:/quatus/nios2eds/bin/gnu/h-i686-mingw32/bin/../lib/gcc/nios2-elf/4.1.2/../../../../nios2-elf/lib\libc.a(lib_a-memchr.o)
 .debug_info    0x0000bac1      0x106 f:/quatus/nios2eds/bin/gnu/h-i686-mingw32/bin/../lib/gcc/nios2-elf/4.1.2/../../../../nios2-elf/lib\libc.a(lib_a-memcpy.o)
 .debug_info    0x0000bbc7      0x13e f:/quatus/nios2eds/bin/gnu/h-i686-mingw32/bin/../lib/gcc/nios2-elf/4.1.2/../../../../nios2-elf/lib\libc.a(lib_a-memmove.o)
 .debug_info    0x0000bd05      0x113 f:/quatus/nios2eds/bin/gnu/h-i686-mingw32/bin/../lib/gcc/nios2-elf/4.1.2/../../../../nios2-elf/lib\libc.a(lib_a-memset.o)
 .debug_info    0x0000be18     0x1437 f:/quatus/nios2eds/bin/gnu/h-i686-mingw32/bin/../lib/gcc/nios2-elf/4.1.2/../../../../nios2-elf/lib\libc.a(lib_a-mprec.o)
 .debug_info    0x0000d24f      0xbd7 f:/quatus/nios2eds/bin/gnu/h-i686-mingw32/bin/../lib/gcc/nios2-elf/4.1.2/../../../../nios2-elf/lib\libc.a(lib_a-reallocr.o)
 .debug_info    0x0000de26       0xd7 f:/quatus/nios2eds/bin/gnu/h-i686-mingw32/bin/../lib/gcc/nios2-elf/4.1.2/../../../../nios2-elf/lib\libc.a(lib_a-s_isinfd.o)
 .debug_info    0x0000defd       0xd5 f:/quatus/nios2eds/bin/gnu/h-i686-mingw32/bin/../lib/gcc/nios2-elf/4.1.2/../../../../nios2-elf/lib\libc.a(lib_a-s_isnand.o)
 .debug_info    0x0000dfd2      0x962 f:/quatus/nios2eds/bin/gnu/h-i686-mingw32/bin/../lib/gcc/nios2-elf/4.1.2/../../../../nios2-elf/lib\libc.a(lib_a-sbrkr.o)
 .debug_info    0x0000e934      0xaac f:/quatus/nios2eds/bin/gnu/h-i686-mingw32/bin/../lib/gcc/nios2-elf/4.1.2/../../../../nios2-elf/lib\libc.a(lib_a-stdio.o)
 .debug_info    0x0000f3e0       0xdd f:/quatus/nios2eds/bin/gnu/h-i686-mingw32/bin/../lib/gcc/nios2-elf/4.1.2/../../../../nios2-elf/lib\libc.a(lib_a-strcmp.o)
 .debug_info    0x0000f4bd      0x993 f:/quatus/nios2eds/bin/gnu/h-i686-mingw32/bin/../lib/gcc/nios2-elf/4.1.2/../../../../nios2-elf/lib\libc.a(lib_a-writer.o)
 .debug_info    0x0000fe50      0xa1b f:/quatus/nios2eds/bin/gnu/h-i686-mingw32/bin/../lib/gcc/nios2-elf/4.1.2/../../../../nios2-elf/lib\libc.a(lib_a-callocr.o)
 .debug_info    0x0001086b      0x958 f:/quatus/nios2eds/bin/gnu/h-i686-mingw32/bin/../lib/gcc/nios2-elf/4.1.2/../../../../nios2-elf/lib\libc.a(lib_a-closer.o)
 .debug_info    0x000111c3      0x994 f:/quatus/nios2eds/bin/gnu/h-i686-mingw32/bin/../lib/gcc/nios2-elf/4.1.2/../../../../nios2-elf/lib\libc.a(lib_a-fclose.o)
 .debug_info    0x00011b57      0xafc f:/quatus/nios2eds/bin/gnu/h-i686-mingw32/bin/../lib/gcc/nios2-elf/4.1.2/../../../../nios2-elf/lib\libc.a(lib_a-fstatr.o)
 .debug_info    0x00012653       0x8c f:/quatus/nios2eds/bin/gnu/h-i686-mingw32/bin/../lib/gcc/nios2-elf/4.1.2/../../../../nios2-elf/lib\libc.a(lib_a-int_errno.o)
 .debug_info    0x000126df      0x958 f:/quatus/nios2eds/bin/gnu/h-i686-mingw32/bin/../lib/gcc/nios2-elf/4.1.2/../../../../nios2-elf/lib\libc.a(lib_a-isattyr.o)
 .debug_info    0x00013037      0x981 f:/quatus/nios2eds/bin/gnu/h-i686-mingw32/bin/../lib/gcc/nios2-elf/4.1.2/../../../../nios2-elf/lib\libc.a(lib_a-lseekr.o)
 .debug_info    0x000139b8      0x98c f:/quatus/nios2eds/bin/gnu/h-i686-mingw32/bin/../lib/gcc/nios2-elf/4.1.2/../../../../nios2-elf/lib\libc.a(lib_a-readr.o)
 .debug_info    0x00014344      0x724 f:/quatus/nios2eds/bin/gnu/h-i686-mingw32/bin/../lib/gcc/nios2-elf/4.1.2\libgcc.a(_udivdi3.o)
 .debug_info    0x00014a68      0x751 f:/quatus/nios2eds/bin/gnu/h-i686-mingw32/bin/../lib/gcc/nios2-elf/4.1.2\libgcc.a(_umoddi3.o)
 .debug_info    0x000151b9      0x493 f:/quatus/nios2eds/bin/gnu/h-i686-mingw32/bin/../lib/gcc/nios2-elf/4.1.2\libgcc.a(_addsub_df.o)
 .debug_info    0x0001564c      0x488 f:/quatus/nios2eds/bin/gnu/h-i686-mingw32/bin/../lib/gcc/nios2-elf/4.1.2\libgcc.a(_mul_df.o)
 .debug_info    0x00015ad4      0x39b f:/quatus/nios2eds/bin/gnu/h-i686-mingw32/bin/../lib/gcc/nios2-elf/4.1.2\libgcc.a(_div_df.o)
 .debug_info    0x00015e6f      0x29d f:/quatus/nios2eds/bin/gnu/h-i686-mingw32/bin/../lib/gcc/nios2-elf/4.1.2\libgcc.a(_eq_df.o)
 .debug_info    0x0001610c      0x29d f:/quatus/nios2eds/bin/gnu/h-i686-mingw32/bin/../lib/gcc/nios2-elf/4.1.2\libgcc.a(_ne_df.o)
 .debug_info    0x000163a9      0x29d f:/quatus/nios2eds/bin/gnu/h-i686-mingw32/bin/../lib/gcc/nios2-elf/4.1.2\libgcc.a(_gt_df.o)
 .debug_info    0x00016646      0x29d f:/quatus/nios2eds/bin/gnu/h-i686-mingw32/bin/../lib/gcc/nios2-elf/4.1.2\libgcc.a(_ge_df.o)
 .debug_info    0x000168e3      0x29d f:/quatus/nios2eds/bin/gnu/h-i686-mingw32/bin/../lib/gcc/nios2-elf/4.1.2\libgcc.a(_lt_df.o)
 .debug_info    0x00016b80      0x218 f:/quatus/nios2eds/bin/gnu/h-i686-mingw32/bin/../lib/gcc/nios2-elf/4.1.2\libgcc.a(_si_to_df.o)
 .debug_info    0x00016d98      0x2cd f:/quatus/nios2eds/bin/gnu/h-i686-mingw32/bin/../lib/gcc/nios2-elf/4.1.2\libgcc.a(_df_to_si.o)
 .debug_info    0x00017065      0x164 f:/quatus/nios2eds/bin/gnu/h-i686-mingw32/bin/../lib/gcc/nios2-elf/4.1.2\libgcc.a(_thenan_df.o)
 .debug_info    0x000171c9      0x213 f:/quatus/nios2eds/bin/gnu/h-i686-mingw32/bin/../lib/gcc/nios2-elf/4.1.2\libgcc.a(_usi_to_df.o)
 .debug_info    0x000173dc       0xc9 f:/quatus/nios2eds/bin/gnu/h-i686-mingw32/bin/../lib/gcc/nios2-elf/4.1.2\libgcc.a(_clz.o)
 .debug_info    0x000174a5      0x130 f:/quatus/nios2eds/bin/gnu/h-i686-mingw32/bin/../lib/gcc/nios2-elf/4.1.2\libgcc.a(_clzsi2.o)
 .debug_info    0x000175d5      0x2fc f:/quatus/nios2eds/bin/gnu/h-i686-mingw32/bin/../lib/gcc/nios2-elf/4.1.2\libgcc.a(_pack_df.o)
 .debug_info    0x000178d1      0x268 f:/quatus/nios2eds/bin/gnu/h-i686-mingw32/bin/../lib/gcc/nios2-elf/4.1.2\libgcc.a(_unpack_df.o)
 .debug_info    0x00017b39      0x21b f:/quatus/nios2eds/bin/gnu/h-i686-mingw32/bin/../lib/gcc/nios2-elf/4.1.2\libgcc.a(_fpcmp_parts_df.o)
 .debug_info    0x00017d54      0x453 ../homework_bsp/\libhal_bsp.a(alt_close.o)
 .debug_info    0x000181a7      0x66b ../homework_bsp/\libhal_bsp.a(alt_dev.o)
 .debug_info    0x00018812      0x150 ../homework_bsp/\libhal_bsp.a(alt_errno.o)
 .debug_info    0x00018962      0x64c ../homework_bsp/\libhal_bsp.a(alt_fstat.o)
 .debug_info    0x00018fae      0x416 ../homework_bsp/\libhal_bsp.a(alt_irq_register.o)
 .debug_info    0x000193c4      0x153 ../homework_bsp/\libhal_bsp.a(alt_irq_vars.o)
 .debug_info    0x00019517      0x652 ../homework_bsp/\libhal_bsp.a(alt_isatty.o)
 .debug_info    0x00019b69      0x279 ../homework_bsp/\libhal_bsp.a(alt_load.o)
 .debug_info    0x00019de2      0x486 ../homework_bsp/\libhal_bsp.a(alt_lseek.o)
 .debug_info    0x0001a268      0x211 ../homework_bsp/\libhal_bsp.a(alt_main.o)
 .debug_info    0x0001a479      0xc04 ../homework_bsp/\libhal_bsp.a(alt_malloc_lock.o)
 .debug_info    0x0001b07d      0x676 ../homework_bsp/\libhal_bsp.a(alt_read.o)
 .debug_info    0x0001b6f3      0x3de ../homework_bsp/\libhal_bsp.a(alt_release_fd.o)
 .debug_info    0x0001bad1      0x2a3 ../homework_bsp/\libhal_bsp.a(alt_sbrk.o)
 .debug_info    0x0001bd74      0x67f ../homework_bsp/\libhal_bsp.a(alt_write.o)
 .debug_info    0x0001c3f3      0xd8a ../homework_bsp/\libhal_bsp.a(alt_sys_init.o)
 .debug_info    0x0001d17d      0xd91 ../homework_bsp/\libhal_bsp.a(altera_avalon_dma.o)
 .debug_info    0x0001df0e      0x7c5 ../homework_bsp/\libhal_bsp.a(altera_avalon_jtag_uart_fd.o)
 .debug_info    0x0001e6d3      0x5ed ../homework_bsp/\libhal_bsp.a(altera_avalon_jtag_uart_init.o)
 .debug_info    0x0001ecc0      0x42f ../homework_bsp/\libhal_bsp.a(altera_avalon_jtag_uart_ioctl.o)
 .debug_info    0x0001f0ef      0x532 ../homework_bsp/\libhal_bsp.a(altera_avalon_jtag_uart_read.o)
 .debug_info    0x0001f621      0x52a ../homework_bsp/\libhal_bsp.a(altera_avalon_jtag_uart_write.o)
 .debug_info    0x0001fb4b      0x1f3 ../homework_bsp/\libhal_bsp.a(altera_avalon_timer_vars.o)
 .debug_info    0x0001fd3e      0x628 ../homework_bsp/\libhal_bsp.a(altera_avalon_uart_fd.o)
 .debug_info    0x00020366      0x4fa ../homework_bsp/\libhal_bsp.a(altera_avalon_uart_init.o)
 .debug_info    0x00020860      0x4ae ../homework_bsp/\libhal_bsp.a(altera_avalon_uart_read.o)
 .debug_info    0x00020d0e      0x4ac ../homework_bsp/\libhal_bsp.a(altera_avalon_uart_write.o)
 .debug_info    0x000211ba      0x42e ../homework_bsp/\libhal_bsp.a(alt_alarm_start.o)
 .debug_info    0x000215e8      0x15b ../homework_bsp/\libhal_bsp.a(alt_dcache_flush_all.o)
 .debug_info    0x00021743      0x2a3 ../homework_bsp/\libhal_bsp.a(alt_dev_llist_insert.o)
 .debug_info    0x000219e6      0x39d ../homework_bsp/\libhal_bsp.a(alt_dma_rxchan_open.o)
 .debug_info    0x00021d83      0x3b7 ../homework_bsp/\libhal_bsp.a(alt_dma_txchan_open.o)
 .debug_info    0x0002213a       0xfb ../homework_bsp/\libhal_bsp.a(alt_do_ctors.o)
 .debug_info    0x00022235       0xfa ../homework_bsp/\libhal_bsp.a(alt_do_dtors.o)
 .debug_info    0x0002232f      0x404 ../homework_bsp/\libhal_bsp.a(alt_find_dev.o)
 .debug_info    0x00022733      0x148 ../homework_bsp/\libhal_bsp.a(alt_icache_flush_all.o)
 .debug_info    0x0002287b      0x47f ../homework_bsp/\libhal_bsp.a(alt_iic.o)
 .debug_info    0x00022cfa      0x300 ../homework_bsp/\libhal_bsp.a(alt_iic_isr_register.o)
 .debug_info    0x00022ffa      0x681 ../homework_bsp/\libhal_bsp.a(alt_io_redirect.o)
 .debug_info    0x0002367b       0x70 ../homework_bsp/\libhal_bsp.a(alt_irq_entry.o)
 .debug_info    0x000236eb      0x261 ../homework_bsp/\libhal_bsp.a(alt_irq_handler.o)
 .debug_info    0x0002394c      0x511 ../homework_bsp/\libhal_bsp.a(alt_open.o)
 .debug_info    0x00023e5d      0x3ea ../homework_bsp/\libhal_bsp.a(alt_tick.o)
 .debug_info    0x00024247      0x14f ../homework_bsp/\libhal_bsp.a(altera_nios2_qsys_irq.o)
 .debug_info    0x00024396       0x76 ../homework_bsp/\libhal_bsp.a(alt_exception_entry.o)
 .debug_info    0x0002440c      0x40b ../homework_bsp/\libhal_bsp.a(alt_find_file.o)
 .debug_info    0x00024817      0x44c ../homework_bsp/\libhal_bsp.a(alt_get_fd.o)
 .debug_info    0x00024c63      0x190 ../homework_bsp/\libhal_bsp.a(alt_icache_flush.o)
 .debug_info    0x00024df3      0x181 f:/quatus/nios2eds/bin/gnu/h-i686-mingw32/bin/../lib/gcc/nios2-elf/4.1.2/../../../../nios2-elf/lib\libc.a(lib_a-atexit.o)
 .debug_info    0x00024f74      0x93f f:/quatus/nios2eds/bin/gnu/h-i686-mingw32/bin/../lib/gcc/nios2-elf/4.1.2/../../../../nios2-elf/lib\libc.a(lib_a-exit.o)
 .debug_info    0x000258b3      0x115 f:/quatus/nios2eds/bin/gnu/h-i686-mingw32/bin/../lib/gcc/nios2-elf/4.1.2/../../../../nios2-elf/lib\libc.a(lib_a-memcmp.o)
 .debug_info    0x000259c8      0x99c f:/quatus/nios2eds/bin/gnu/h-i686-mingw32/bin/../lib/gcc/nios2-elf/4.1.2/../../../../nios2-elf/lib\libc.a(lib_a-__atexit.o)
 .debug_info    0x00026364      0x9e2 f:/quatus/nios2eds/bin/gnu/h-i686-mingw32/bin/../lib/gcc/nios2-elf/4.1.2/../../../../nios2-elf/lib\libc.a(lib_a-__call_atexit.o)
 .debug_info    0x00026d46      0x179 ../homework_bsp/\libhal_bsp.a(alt_exit.o)

.debug_abbrev   0x00000000     0x8bdd
 *(.debug_abbrev)
 .debug_abbrev  0x00000000       0x12 ../homework_bsp//obj/HAL/src/crt0.o
 .debug_abbrev  0x00000012       0x57 obj/default/hello_world.o
 .debug_abbrev  0x00000069       0xb0 obj/default/pio.o
 .debug_abbrev  0x00000119       0xc9 obj/default/timebt.o
 .debug_abbrev  0x000001e2      0x206 f:/quatus/nios2eds/bin/gnu/h-i686-mingw32/bin/../lib/gcc/nios2-elf/4.1.2\libgcc.a(_mul_sf.o)
 .debug_abbrev  0x000003e8      0x176 f:/quatus/nios2eds/bin/gnu/h-i686-mingw32/bin/../lib/gcc/nios2-elf/4.1.2\libgcc.a(_sf_to_si.o)
 .debug_abbrev  0x0000055e       0xba f:/quatus/nios2eds/bin/gnu/h-i686-mingw32/bin/../lib/gcc/nios2-elf/4.1.2\libgcc.a(_thenan_sf.o)
 .debug_abbrev  0x00000618       0xe0 f:/quatus/nios2eds/bin/gnu/h-i686-mingw32/bin/../lib/gcc/nios2-elf/4.1.2\libgcc.a(lib2-divmod.o)
 .debug_abbrev  0x000006f8       0xee f:/quatus/nios2eds/bin/gnu/h-i686-mingw32/bin/../lib/gcc/nios2-elf/4.1.2\libgcc.a(_muldi3.o)
 .debug_abbrev  0x000007e6      0x1aa f:/quatus/nios2eds/bin/gnu/h-i686-mingw32/bin/../lib/gcc/nios2-elf/4.1.2\libgcc.a(_pack_sf.o)
 .debug_abbrev  0x00000990      0x158 f:/quatus/nios2eds/bin/gnu/h-i686-mingw32/bin/../lib/gcc/nios2-elf/4.1.2\libgcc.a(_unpack_sf.o)
 .debug_abbrev  0x00000ae8      0x191 f:/quatus/nios2eds/bin/gnu/h-i686-mingw32/bin/../lib/gcc/nios2-elf/4.1.2/../../../../nios2-elf/lib\libc.a(lib_a-printf.o)
 .debug_abbrev  0x00000c79      0x1ac f:/quatus/nios2eds/bin/gnu/h-i686-mingw32/bin/../lib/gcc/nios2-elf/4.1.2/../../../../nios2-elf/lib\libc.a(lib_a-puts.o)
 .debug_abbrev  0x00000e25       0x8b f:/quatus/nios2eds/bin/gnu/h-i686-mingw32/bin/../lib/gcc/nios2-elf/4.1.2/../../../../nios2-elf/lib\libc.a(lib_a-strlen.o)
 .debug_abbrev  0x00000eb0      0x30a f:/quatus/nios2eds/bin/gnu/h-i686-mingw32/bin/../lib/gcc/nios2-elf/4.1.2/../../../../nios2-elf/lib\libc.a(lib_a-vfprintf.o)
 .debug_abbrev  0x000011ba      0x170 f:/quatus/nios2eds/bin/gnu/h-i686-mingw32/bin/../lib/gcc/nios2-elf/4.1.2/../../../../nios2-elf/lib\libc.a(lib_a-wsetup.o)
 .debug_abbrev  0x0000132a      0x232 f:/quatus/nios2eds/bin/gnu/h-i686-mingw32/bin/../lib/gcc/nios2-elf/4.1.2/../../../../nios2-elf/lib\libc.a(lib_a-dtoa.o)
 .debug_abbrev  0x0000155c      0x1c6 f:/quatus/nios2eds/bin/gnu/h-i686-mingw32/bin/../lib/gcc/nios2-elf/4.1.2/../../../../nios2-elf/lib\libc.a(lib_a-fflush.o)
 .debug_abbrev  0x00001722      0x24c f:/quatus/nios2eds/bin/gnu/h-i686-mingw32/bin/../lib/gcc/nios2-elf/4.1.2/../../../../nios2-elf/lib\libc.a(lib_a-findfp.o)
 .debug_abbrev  0x0000196e      0x1d9 f:/quatus/nios2eds/bin/gnu/h-i686-mingw32/bin/../lib/gcc/nios2-elf/4.1.2/../../../../nios2-elf/lib\libc.a(lib_a-freer.o)
 .debug_abbrev  0x00001b47      0x1a3 f:/quatus/nios2eds/bin/gnu/h-i686-mingw32/bin/../lib/gcc/nios2-elf/4.1.2/../../../../nios2-elf/lib\libc.a(lib_a-fvwrite.o)
 .debug_abbrev  0x00001cea      0x1e3 f:/quatus/nios2eds/bin/gnu/h-i686-mingw32/bin/../lib/gcc/nios2-elf/4.1.2/../../../../nios2-elf/lib\libc.a(lib_a-fwalk.o)
 .debug_abbrev  0x00001ecd      0x157 f:/quatus/nios2eds/bin/gnu/h-i686-mingw32/bin/../lib/gcc/nios2-elf/4.1.2/../../../../nios2-elf/lib\libc.a(lib_a-impure.o)
 .debug_abbrev  0x00002024      0x1ed f:/quatus/nios2eds/bin/gnu/h-i686-mingw32/bin/../lib/gcc/nios2-elf/4.1.2/../../../../nios2-elf/lib\libc.a(lib_a-locale.o)
 .debug_abbrev  0x00002211      0x197 f:/quatus/nios2eds/bin/gnu/h-i686-mingw32/bin/../lib/gcc/nios2-elf/4.1.2/../../../../nios2-elf/lib\libc.a(lib_a-makebuf.o)
 .debug_abbrev  0x000023a8      0x216 f:/quatus/nios2eds/bin/gnu/h-i686-mingw32/bin/../lib/gcc/nios2-elf/4.1.2/../../../../nios2-elf/lib\libc.a(lib_a-mallocr.o)
 .debug_abbrev  0x000025be       0xb5 f:/quatus/nios2eds/bin/gnu/h-i686-mingw32/bin/../lib/gcc/nios2-elf/4.1.2/../../../../nios2-elf/lib\libc.a(lib_a-memchr.o)
 .debug_abbrev  0x00002673       0xb5 f:/quatus/nios2eds/bin/gnu/h-i686-mingw32/bin/../lib/gcc/nios2-elf/4.1.2/../../../../nios2-elf/lib\libc.a(lib_a-memcpy.o)
 .debug_abbrev  0x00002728       0xb5 f:/quatus/nios2eds/bin/gnu/h-i686-mingw32/bin/../lib/gcc/nios2-elf/4.1.2/../../../../nios2-elf/lib\libc.a(lib_a-memmove.o)
 .debug_abbrev  0x000027dd       0xb8 f:/quatus/nios2eds/bin/gnu/h-i686-mingw32/bin/../lib/gcc/nios2-elf/4.1.2/../../../../nios2-elf/lib\libc.a(lib_a-memset.o)
 .debug_abbrev  0x00002895      0x297 f:/quatus/nios2eds/bin/gnu/h-i686-mingw32/bin/../lib/gcc/nios2-elf/4.1.2/../../../../nios2-elf/lib\libc.a(lib_a-mprec.o)
 .debug_abbrev  0x00002b2c      0x1c3 f:/quatus/nios2eds/bin/gnu/h-i686-mingw32/bin/../lib/gcc/nios2-elf/4.1.2/../../../../nios2-elf/lib\libc.a(lib_a-reallocr.o)
 .debug_abbrev  0x00002cef       0x79 f:/quatus/nios2eds/bin/gnu/h-i686-mingw32/bin/../lib/gcc/nios2-elf/4.1.2/../../../../nios2-elf/lib\libc.a(lib_a-s_isinfd.o)
 .debug_abbrev  0x00002d68       0x79 f:/quatus/nios2eds/bin/gnu/h-i686-mingw32/bin/../lib/gcc/nios2-elf/4.1.2/../../../../nios2-elf/lib\libc.a(lib_a-s_isnand.o)
 .debug_abbrev  0x00002de1      0x18c f:/quatus/nios2eds/bin/gnu/h-i686-mingw32/bin/../lib/gcc/nios2-elf/4.1.2/../../../../nios2-elf/lib\libc.a(lib_a-sbrkr.o)
 .debug_abbrev  0x00002f6d      0x1c9 f:/quatus/nios2eds/bin/gnu/h-i686-mingw32/bin/../lib/gcc/nios2-elf/4.1.2/../../../../nios2-elf/lib\libc.a(lib_a-stdio.o)
 .debug_abbrev  0x00003136       0x80 f:/quatus/nios2eds/bin/gnu/h-i686-mingw32/bin/../lib/gcc/nios2-elf/4.1.2/../../../../nios2-elf/lib\libc.a(lib_a-strcmp.o)
 .debug_abbrev  0x000031b6      0x184 f:/quatus/nios2eds/bin/gnu/h-i686-mingw32/bin/../lib/gcc/nios2-elf/4.1.2/../../../../nios2-elf/lib\libc.a(lib_a-writer.o)
 .debug_abbrev  0x0000333a      0x1b8 f:/quatus/nios2eds/bin/gnu/h-i686-mingw32/bin/../lib/gcc/nios2-elf/4.1.2/../../../../nios2-elf/lib\libc.a(lib_a-callocr.o)
 .debug_abbrev  0x000034f2      0x17f f:/quatus/nios2eds/bin/gnu/h-i686-mingw32/bin/../lib/gcc/nios2-elf/4.1.2/../../../../nios2-elf/lib\libc.a(lib_a-closer.o)
 .debug_abbrev  0x00003671      0x1a7 f:/quatus/nios2eds/bin/gnu/h-i686-mingw32/bin/../lib/gcc/nios2-elf/4.1.2/../../../../nios2-elf/lib\libc.a(lib_a-fclose.o)
 .debug_abbrev  0x00003818      0x18e f:/quatus/nios2eds/bin/gnu/h-i686-mingw32/bin/../lib/gcc/nios2-elf/4.1.2/../../../../nios2-elf/lib\libc.a(lib_a-fstatr.o)
 .debug_abbrev  0x000039a6       0x3b f:/quatus/nios2eds/bin/gnu/h-i686-mingw32/bin/../lib/gcc/nios2-elf/4.1.2/../../../../nios2-elf/lib\libc.a(lib_a-int_errno.o)
 .debug_abbrev  0x000039e1      0x17f f:/quatus/nios2eds/bin/gnu/h-i686-mingw32/bin/../lib/gcc/nios2-elf/4.1.2/../../../../nios2-elf/lib\libc.a(lib_a-isattyr.o)
 .debug_abbrev  0x00003b60      0x18e f:/quatus/nios2eds/bin/gnu/h-i686-mingw32/bin/../lib/gcc/nios2-elf/4.1.2/../../../../nios2-elf/lib\libc.a(lib_a-lseekr.o)
 .debug_abbrev  0x00003cee      0x17f f:/quatus/nios2eds/bin/gnu/h-i686-mingw32/bin/../lib/gcc/nios2-elf/4.1.2/../../../../nios2-elf/lib\libc.a(lib_a-readr.o)
 .debug_abbrev  0x00003e6d      0x16b f:/quatus/nios2eds/bin/gnu/h-i686-mingw32/bin/../lib/gcc/nios2-elf/4.1.2\libgcc.a(_udivdi3.o)
 .debug_abbrev  0x00003fd8      0x18e f:/quatus/nios2eds/bin/gnu/h-i686-mingw32/bin/../lib/gcc/nios2-elf/4.1.2\libgcc.a(_umoddi3.o)
 .debug_abbrev  0x00004166      0x1d2 f:/quatus/nios2eds/bin/gnu/h-i686-mingw32/bin/../lib/gcc/nios2-elf/4.1.2\libgcc.a(_addsub_df.o)
 .debug_abbrev  0x00004338      0x204 f:/quatus/nios2eds/bin/gnu/h-i686-mingw32/bin/../lib/gcc/nios2-elf/4.1.2\libgcc.a(_mul_df.o)
 .debug_abbrev  0x0000453c      0x1e3 f:/quatus/nios2eds/bin/gnu/h-i686-mingw32/bin/../lib/gcc/nios2-elf/4.1.2\libgcc.a(_div_df.o)
 .debug_abbrev  0x0000471f      0x151 f:/quatus/nios2eds/bin/gnu/h-i686-mingw32/bin/../lib/gcc/nios2-elf/4.1.2\libgcc.a(_eq_df.o)
 .debug_abbrev  0x00004870      0x151 f:/quatus/nios2eds/bin/gnu/h-i686-mingw32/bin/../lib/gcc/nios2-elf/4.1.2\libgcc.a(_ne_df.o)
 .debug_abbrev  0x000049c1      0x151 f:/quatus/nios2eds/bin/gnu/h-i686-mingw32/bin/../lib/gcc/nios2-elf/4.1.2\libgcc.a(_gt_df.o)
 .debug_abbrev  0x00004b12      0x151 f:/quatus/nios2eds/bin/gnu/h-i686-mingw32/bin/../lib/gcc/nios2-elf/4.1.2\libgcc.a(_ge_df.o)
 .debug_abbrev  0x00004c63      0x151 f:/quatus/nios2eds/bin/gnu/h-i686-mingw32/bin/../lib/gcc/nios2-elf/4.1.2\libgcc.a(_lt_df.o)
 .debug_abbrev  0x00004db4      0x13f f:/quatus/nios2eds/bin/gnu/h-i686-mingw32/bin/../lib/gcc/nios2-elf/4.1.2\libgcc.a(_si_to_df.o)
 .debug_abbrev  0x00004ef3      0x176 f:/quatus/nios2eds/bin/gnu/h-i686-mingw32/bin/../lib/gcc/nios2-elf/4.1.2\libgcc.a(_df_to_si.o)
 .debug_abbrev  0x00005069       0xba f:/quatus/nios2eds/bin/gnu/h-i686-mingw32/bin/../lib/gcc/nios2-elf/4.1.2\libgcc.a(_thenan_df.o)
 .debug_abbrev  0x00005123      0x155 f:/quatus/nios2eds/bin/gnu/h-i686-mingw32/bin/../lib/gcc/nios2-elf/4.1.2\libgcc.a(_usi_to_df.o)
 .debug_abbrev  0x00005278       0x61 f:/quatus/nios2eds/bin/gnu/h-i686-mingw32/bin/../lib/gcc/nios2-elf/4.1.2\libgcc.a(_clz.o)
 .debug_abbrev  0x000052d9       0xb9 f:/quatus/nios2eds/bin/gnu/h-i686-mingw32/bin/../lib/gcc/nios2-elf/4.1.2\libgcc.a(_clzsi2.o)
 .debug_abbrev  0x00005392      0x1b1 f:/quatus/nios2eds/bin/gnu/h-i686-mingw32/bin/../lib/gcc/nios2-elf/4.1.2\libgcc.a(_pack_df.o)
 .debug_abbrev  0x00005543      0x149 f:/quatus/nios2eds/bin/gnu/h-i686-mingw32/bin/../lib/gcc/nios2-elf/4.1.2\libgcc.a(_unpack_df.o)
 .debug_abbrev  0x0000568c      0x132 f:/quatus/nios2eds/bin/gnu/h-i686-mingw32/bin/../lib/gcc/nios2-elf/4.1.2\libgcc.a(_fpcmp_parts_df.o)
 .debug_abbrev  0x000057be       0xfb ../homework_bsp/\libhal_bsp.a(alt_close.o)
 .debug_abbrev  0x000058b9       0xc7 ../homework_bsp/\libhal_bsp.a(alt_dev.o)
 .debug_abbrev  0x00005980       0x5e ../homework_bsp/\libhal_bsp.a(alt_errno.o)
 .debug_abbrev  0x000059de       0xfb ../homework_bsp/\libhal_bsp.a(alt_fstat.o)
 .debug_abbrev  0x00005ad9      0x180 ../homework_bsp/\libhal_bsp.a(alt_irq_register.o)
 .debug_abbrev  0x00005c59       0x44 ../homework_bsp/\libhal_bsp.a(alt_irq_vars.o)
 .debug_abbrev  0x00005c9d       0xfb ../homework_bsp/\libhal_bsp.a(alt_isatty.o)
 .debug_abbrev  0x00005d98       0x88 ../homework_bsp/\libhal_bsp.a(alt_load.o)
 .debug_abbrev  0x00005e20       0xfb ../homework_bsp/\libhal_bsp.a(alt_lseek.o)
 .debug_abbrev  0x00005f1b       0xb7 ../homework_bsp/\libhal_bsp.a(alt_main.o)
 .debug_abbrev  0x00005fd2      0x181 ../homework_bsp/\libhal_bsp.a(alt_malloc_lock.o)
 .debug_abbrev  0x00006153       0xfb ../homework_bsp/\libhal_bsp.a(alt_read.o)
 .debug_abbrev  0x0000624e       0xc1 ../homework_bsp/\libhal_bsp.a(alt_release_fd.o)
 .debug_abbrev  0x0000630f      0x115 ../homework_bsp/\libhal_bsp.a(alt_sbrk.o)
 .debug_abbrev  0x00006424      0x100 ../homework_bsp/\libhal_bsp.a(alt_write.o)
 .debug_abbrev  0x00006524      0x170 ../homework_bsp/\libhal_bsp.a(alt_sys_init.o)
 .debug_abbrev  0x00006694      0x242 ../homework_bsp/\libhal_bsp.a(altera_avalon_dma.o)
 .debug_abbrev  0x000068d6       0xf7 ../homework_bsp/\libhal_bsp.a(altera_avalon_jtag_uart_fd.o)
 .debug_abbrev  0x000069cd      0x17c ../homework_bsp/\libhal_bsp.a(altera_avalon_jtag_uart_init.o)
 .debug_abbrev  0x00006b49       0xf0 ../homework_bsp/\libhal_bsp.a(altera_avalon_jtag_uart_ioctl.o)
 .debug_abbrev  0x00006c39      0x191 ../homework_bsp/\libhal_bsp.a(altera_avalon_jtag_uart_read.o)
 .debug_abbrev  0x00006dca      0x18d ../homework_bsp/\libhal_bsp.a(altera_avalon_jtag_uart_write.o)
 .debug_abbrev  0x00006f57       0x87 ../homework_bsp/\libhal_bsp.a(altera_avalon_timer_vars.o)
 .debug_abbrev  0x00006fde       0xe8 ../homework_bsp/\libhal_bsp.a(altera_avalon_uart_fd.o)
 .debug_abbrev  0x000070c6      0x148 ../homework_bsp/\libhal_bsp.a(altera_avalon_uart_init.o)
 .debug_abbrev  0x0000720e      0x174 ../homework_bsp/\libhal_bsp.a(altera_avalon_uart_read.o)
 .debug_abbrev  0x00007382      0x17b ../homework_bsp/\libhal_bsp.a(altera_avalon_uart_write.o)
 .debug_abbrev  0x000074fd      0x172 ../homework_bsp/\libhal_bsp.a(alt_alarm_start.o)
 .debug_abbrev  0x0000766f       0x57 ../homework_bsp/\libhal_bsp.a(alt_dcache_flush_all.o)
 .debug_abbrev  0x000076c6       0xf6 ../homework_bsp/\libhal_bsp.a(alt_dev_llist_insert.o)
 .debug_abbrev  0x000077bc       0xfe ../homework_bsp/\libhal_bsp.a(alt_dma_rxchan_open.o)
 .debug_abbrev  0x000078ba      0x103 ../homework_bsp/\libhal_bsp.a(alt_dma_txchan_open.o)
 .debug_abbrev  0x000079bd       0x76 ../homework_bsp/\libhal_bsp.a(alt_do_ctors.o)
 .debug_abbrev  0x00007a33       0x76 ../homework_bsp/\libhal_bsp.a(alt_do_dtors.o)
 .debug_abbrev  0x00007aa9       0xcf ../homework_bsp/\libhal_bsp.a(alt_find_dev.o)
 .debug_abbrev  0x00007b78       0x3f ../homework_bsp/\libhal_bsp.a(alt_icache_flush_all.o)
 .debug_abbrev  0x00007bb7      0x134 ../homework_bsp/\libhal_bsp.a(alt_iic.o)
 .debug_abbrev  0x00007ceb      0x14e ../homework_bsp/\libhal_bsp.a(alt_iic_isr_register.o)
 .debug_abbrev  0x00007e39       0xf0 ../homework_bsp/\libhal_bsp.a(alt_io_redirect.o)
 .debug_abbrev  0x00007f29       0x12 ../homework_bsp/\libhal_bsp.a(alt_irq_entry.o)
 .debug_abbrev  0x00007f3b      0x10c ../homework_bsp/\libhal_bsp.a(alt_irq_handler.o)
 .debug_abbrev  0x00008047      0x112 ../homework_bsp/\libhal_bsp.a(alt_open.o)
 .debug_abbrev  0x00008159      0x150 ../homework_bsp/\libhal_bsp.a(alt_tick.o)
 .debug_abbrev  0x000082a9       0x3f ../homework_bsp/\libhal_bsp.a(altera_nios2_qsys_irq.o)
 .debug_abbrev  0x000082e8       0x12 ../homework_bsp/\libhal_bsp.a(alt_exception_entry.o)
 .debug_abbrev  0x000082fa       0xcf ../homework_bsp/\libhal_bsp.a(alt_find_file.o)
 .debug_abbrev  0x000083c9       0xfb ../homework_bsp/\libhal_bsp.a(alt_get_fd.o)
 .debug_abbrev  0x000084c4       0x7a ../homework_bsp/\libhal_bsp.a(alt_icache_flush.o)
 .debug_abbrev  0x0000853e       0xb7 f:/quatus/nios2eds/bin/gnu/h-i686-mingw32/bin/../lib/gcc/nios2-elf/4.1.2/../../../../nios2-elf/lib\libc.a(lib_a-atexit.o)
 .debug_abbrev  0x000085f5      0x16e f:/quatus/nios2eds/bin/gnu/h-i686-mingw32/bin/../lib/gcc/nios2-elf/4.1.2/../../../../nios2-elf/lib\libc.a(lib_a-exit.o)
 .debug_abbrev  0x00008763       0x7c f:/quatus/nios2eds/bin/gnu/h-i686-mingw32/bin/../lib/gcc/nios2-elf/4.1.2/../../../../nios2-elf/lib\libc.a(lib_a-memcmp.o)
 .debug_abbrev  0x000087df      0x1ae f:/quatus/nios2eds/bin/gnu/h-i686-mingw32/bin/../lib/gcc/nios2-elf/4.1.2/../../../../nios2-elf/lib\libc.a(lib_a-__atexit.o)
 .debug_abbrev  0x0000898d      0x1de f:/quatus/nios2eds/bin/gnu/h-i686-mingw32/bin/../lib/gcc/nios2-elf/4.1.2/../../../../nios2-elf/lib\libc.a(lib_a-__call_atexit.o)
 .debug_abbrev  0x00008b6b       0x72 ../homework_bsp/\libhal_bsp.a(alt_exit.o)

.debug_line     0x00000000    0x15f81
 *(.debug_line)
 .debug_line    0x00000000       0x72 ../homework_bsp//obj/HAL/src/crt0.o
 .debug_line    0x00000072      0x2f2 obj/default/hello_world.o
 .debug_line    0x00000364      0x2d8 obj/default/pio.o
 .debug_line    0x0000063c      0x485 obj/default/timebt.o
 .debug_line    0x00000ac1      0x2c1 f:/quatus/nios2eds/bin/gnu/h-i686-mingw32/bin/../lib/gcc/nios2-elf/4.1.2\libgcc.a(_mul_sf.o)
 .debug_line    0x00000d82      0x141 f:/quatus/nios2eds/bin/gnu/h-i686-mingw32/bin/../lib/gcc/nios2-elf/4.1.2\libgcc.a(_sf_to_si.o)
 .debug_line    0x00000ec3       0x94 f:/quatus/nios2eds/bin/gnu/h-i686-mingw32/bin/../lib/gcc/nios2-elf/4.1.2\libgcc.a(_thenan_sf.o)
 .debug_line    0x00000f57      0x24f f:/quatus/nios2eds/bin/gnu/h-i686-mingw32/bin/../lib/gcc/nios2-elf/4.1.2\libgcc.a(lib2-divmod.o)
 .debug_line    0x000011a6      0x11f f:/quatus/nios2eds/bin/gnu/h-i686-mingw32/bin/../lib/gcc/nios2-elf/4.1.2\libgcc.a(_muldi3.o)
 .debug_line    0x000012c5      0x1ca f:/quatus/nios2eds/bin/gnu/h-i686-mingw32/bin/../lib/gcc/nios2-elf/4.1.2\libgcc.a(_pack_sf.o)
 .debug_line    0x0000148f      0x197 f:/quatus/nios2eds/bin/gnu/h-i686-mingw32/bin/../lib/gcc/nios2-elf/4.1.2\libgcc.a(_unpack_sf.o)
 .debug_line    0x00001626      0x29b f:/quatus/nios2eds/bin/gnu/h-i686-mingw32/bin/../lib/gcc/nios2-elf/4.1.2/../../../../nios2-elf/lib\libc.a(lib_a-printf.o)
 .debug_line    0x000018c1      0x2f7 f:/quatus/nios2eds/bin/gnu/h-i686-mingw32/bin/../lib/gcc/nios2-elf/4.1.2/../../../../nios2-elf/lib\libc.a(lib_a-puts.o)
 .debug_line    0x00001bb8      0x26d f:/quatus/nios2eds/bin/gnu/h-i686-mingw32/bin/../lib/gcc/nios2-elf/4.1.2/../../../../nios2-elf/lib\libc.a(lib_a-strlen.o)
 .debug_line    0x00001e25     0x110c f:/quatus/nios2eds/bin/gnu/h-i686-mingw32/bin/../lib/gcc/nios2-elf/4.1.2/../../../../nios2-elf/lib\libc.a(lib_a-vfprintf.o)
 .debug_line    0x00002f31      0x2f0 f:/quatus/nios2eds/bin/gnu/h-i686-mingw32/bin/../lib/gcc/nios2-elf/4.1.2/../../../../nios2-elf/lib\libc.a(lib_a-wsetup.o)
 .debug_line    0x00003221     0x12c6 f:/quatus/nios2eds/bin/gnu/h-i686-mingw32/bin/../lib/gcc/nios2-elf/4.1.2/../../../../nios2-elf/lib\libc.a(lib_a-dtoa.o)
 .debug_line    0x000044e7      0x40d f:/quatus/nios2eds/bin/gnu/h-i686-mingw32/bin/../lib/gcc/nios2-elf/4.1.2/../../../../nios2-elf/lib\libc.a(lib_a-fflush.o)
 .debug_line    0x000048f4      0x601 f:/quatus/nios2eds/bin/gnu/h-i686-mingw32/bin/../lib/gcc/nios2-elf/4.1.2/../../../../nios2-elf/lib\libc.a(lib_a-findfp.o)
 .debug_line    0x00004ef5      0x5eb f:/quatus/nios2eds/bin/gnu/h-i686-mingw32/bin/../lib/gcc/nios2-elf/4.1.2/../../../../nios2-elf/lib\libc.a(lib_a-freer.o)
 .debug_line    0x000054e0      0x641 f:/quatus/nios2eds/bin/gnu/h-i686-mingw32/bin/../lib/gcc/nios2-elf/4.1.2/../../../../nios2-elf/lib\libc.a(lib_a-fvwrite.o)
 .debug_line    0x00005b21      0x34a f:/quatus/nios2eds/bin/gnu/h-i686-mingw32/bin/../lib/gcc/nios2-elf/4.1.2/../../../../nios2-elf/lib\libc.a(lib_a-fwalk.o)
 .debug_line    0x00005e6b      0x22d f:/quatus/nios2eds/bin/gnu/h-i686-mingw32/bin/../lib/gcc/nios2-elf/4.1.2/../../../../nios2-elf/lib\libc.a(lib_a-impure.o)
 .debug_line    0x00006098      0x2c8 f:/quatus/nios2eds/bin/gnu/h-i686-mingw32/bin/../lib/gcc/nios2-elf/4.1.2/../../../../nios2-elf/lib\libc.a(lib_a-locale.o)
 .debug_line    0x00006360      0x3c3 f:/quatus/nios2eds/bin/gnu/h-i686-mingw32/bin/../lib/gcc/nios2-elf/4.1.2/../../../../nios2-elf/lib\libc.a(lib_a-makebuf.o)
 .debug_line    0x00006723      0x80a f:/quatus/nios2eds/bin/gnu/h-i686-mingw32/bin/../lib/gcc/nios2-elf/4.1.2/../../../../nios2-elf/lib\libc.a(lib_a-mallocr.o)
 .debug_line    0x00006f2d      0x303 f:/quatus/nios2eds/bin/gnu/h-i686-mingw32/bin/../lib/gcc/nios2-elf/4.1.2/../../../../nios2-elf/lib\libc.a(lib_a-memchr.o)
 .debug_line    0x00007230      0x1ac f:/quatus/nios2eds/bin/gnu/h-i686-mingw32/bin/../lib/gcc/nios2-elf/4.1.2/../../../../nios2-elf/lib\libc.a(lib_a-memcpy.o)
 .debug_line    0x000073dc      0x30a f:/quatus/nios2eds/bin/gnu/h-i686-mingw32/bin/../lib/gcc/nios2-elf/4.1.2/../../../../nios2-elf/lib\libc.a(lib_a-memmove.o)
 .debug_line    0x000076e6      0x301 f:/quatus/nios2eds/bin/gnu/h-i686-mingw32/bin/../lib/gcc/nios2-elf/4.1.2/../../../../nios2-elf/lib\libc.a(lib_a-memset.o)
 .debug_line    0x000079e7     0x1243 f:/quatus/nios2eds/bin/gnu/h-i686-mingw32/bin/../lib/gcc/nios2-elf/4.1.2/../../../../nios2-elf/lib\libc.a(lib_a-mprec.o)
 .debug_line    0x00008c2a      0x58a f:/quatus/nios2eds/bin/gnu/h-i686-mingw32/bin/../lib/gcc/nios2-elf/4.1.2/../../../../nios2-elf/lib\libc.a(lib_a-reallocr.o)
 .debug_line    0x000091b4      0x222 f:/quatus/nios2eds/bin/gnu/h-i686-mingw32/bin/../lib/gcc/nios2-elf/4.1.2/../../../../nios2-elf/lib\libc.a(lib_a-s_isinfd.o)
 .debug_line    0x000093d6      0x21a f:/quatus/nios2eds/bin/gnu/h-i686-mingw32/bin/../lib/gcc/nios2-elf/4.1.2/../../../../nios2-elf/lib\libc.a(lib_a-s_isnand.o)
 .debug_line    0x000095f0      0x299 f:/quatus/nios2eds/bin/gnu/h-i686-mingw32/bin/../lib/gcc/nios2-elf/4.1.2/../../../../nios2-elf/lib\libc.a(lib_a-sbrkr.o)
 .debug_line    0x00009889      0x38c f:/quatus/nios2eds/bin/gnu/h-i686-mingw32/bin/../lib/gcc/nios2-elf/4.1.2/../../../../nios2-elf/lib\libc.a(lib_a-stdio.o)
 .debug_line    0x00009c15      0x2d5 f:/quatus/nios2eds/bin/gnu/h-i686-mingw32/bin/../lib/gcc/nios2-elf/4.1.2/../../../../nios2-elf/lib\libc.a(lib_a-strcmp.o)
 .debug_line    0x00009eea      0x29a f:/quatus/nios2eds/bin/gnu/h-i686-mingw32/bin/../lib/gcc/nios2-elf/4.1.2/../../../../nios2-elf/lib\libc.a(lib_a-writer.o)
 .debug_line    0x0000a184      0x25c f:/quatus/nios2eds/bin/gnu/h-i686-mingw32/bin/../lib/gcc/nios2-elf/4.1.2/../../../../nios2-elf/lib\libc.a(lib_a-callocr.o)
 .debug_line    0x0000a3e0      0x29a f:/quatus/nios2eds/bin/gnu/h-i686-mingw32/bin/../lib/gcc/nios2-elf/4.1.2/../../../../nios2-elf/lib\libc.a(lib_a-closer.o)
 .debug_line    0x0000a67a      0x2e8 f:/quatus/nios2eds/bin/gnu/h-i686-mingw32/bin/../lib/gcc/nios2-elf/4.1.2/../../../../nios2-elf/lib\libc.a(lib_a-fclose.o)
 .debug_line    0x0000a962      0x264 f:/quatus/nios2eds/bin/gnu/h-i686-mingw32/bin/../lib/gcc/nios2-elf/4.1.2/../../../../nios2-elf/lib\libc.a(lib_a-fstatr.o)
 .debug_line    0x0000abc6      0x1df f:/quatus/nios2eds/bin/gnu/h-i686-mingw32/bin/../lib/gcc/nios2-elf/4.1.2/../../../../nios2-elf/lib\libc.a(lib_a-int_errno.o)
 .debug_line    0x0000ada5      0x29b f:/quatus/nios2eds/bin/gnu/h-i686-mingw32/bin/../lib/gcc/nios2-elf/4.1.2/../../../../nios2-elf/lib\libc.a(lib_a-isattyr.o)
 .debug_line    0x0000b040      0x29a f:/quatus/nios2eds/bin/gnu/h-i686-mingw32/bin/../lib/gcc/nios2-elf/4.1.2/../../../../nios2-elf/lib\libc.a(lib_a-lseekr.o)
 .debug_line    0x0000b2da      0x299 f:/quatus/nios2eds/bin/gnu/h-i686-mingw32/bin/../lib/gcc/nios2-elf/4.1.2/../../../../nios2-elf/lib\libc.a(lib_a-readr.o)
 .debug_line    0x0000b573      0x2f2 f:/quatus/nios2eds/bin/gnu/h-i686-mingw32/bin/../lib/gcc/nios2-elf/4.1.2\libgcc.a(_udivdi3.o)
 .debug_line    0x0000b865      0x37d f:/quatus/nios2eds/bin/gnu/h-i686-mingw32/bin/../lib/gcc/nios2-elf/4.1.2\libgcc.a(_umoddi3.o)
 .debug_line    0x0000bbe2      0x430 f:/quatus/nios2eds/bin/gnu/h-i686-mingw32/bin/../lib/gcc/nios2-elf/4.1.2\libgcc.a(_addsub_df.o)
 .debug_line    0x0000c012      0x3e5 f:/quatus/nios2eds/bin/gnu/h-i686-mingw32/bin/../lib/gcc/nios2-elf/4.1.2\libgcc.a(_mul_df.o)
 .debug_line    0x0000c3f7      0x301 f:/quatus/nios2eds/bin/gnu/h-i686-mingw32/bin/../lib/gcc/nios2-elf/4.1.2\libgcc.a(_div_df.o)
 .debug_line    0x0000c6f8      0x129 f:/quatus/nios2eds/bin/gnu/h-i686-mingw32/bin/../lib/gcc/nios2-elf/4.1.2\libgcc.a(_eq_df.o)
 .debug_line    0x0000c821      0x129 f:/quatus/nios2eds/bin/gnu/h-i686-mingw32/bin/../lib/gcc/nios2-elf/4.1.2\libgcc.a(_ne_df.o)
 .debug_line    0x0000c94a      0x129 f:/quatus/nios2eds/bin/gnu/h-i686-mingw32/bin/../lib/gcc/nios2-elf/4.1.2\libgcc.a(_gt_df.o)
 .debug_line    0x0000ca73      0x129 f:/quatus/nios2eds/bin/gnu/h-i686-mingw32/bin/../lib/gcc/nios2-elf/4.1.2\libgcc.a(_ge_df.o)
 .debug_line    0x0000cb9c      0x129 f:/quatus/nios2eds/bin/gnu/h-i686-mingw32/bin/../lib/gcc/nios2-elf/4.1.2\libgcc.a(_lt_df.o)
 .debug_line    0x0000ccc5      0x175 f:/quatus/nios2eds/bin/gnu/h-i686-mingw32/bin/../lib/gcc/nios2-elf/4.1.2\libgcc.a(_si_to_df.o)
 .debug_line    0x0000ce3a      0x149 f:/quatus/nios2eds/bin/gnu/h-i686-mingw32/bin/../lib/gcc/nios2-elf/4.1.2\libgcc.a(_df_to_si.o)
 .debug_line    0x0000cf83       0x94 f:/quatus/nios2eds/bin/gnu/h-i686-mingw32/bin/../lib/gcc/nios2-elf/4.1.2\libgcc.a(_thenan_df.o)
 .debug_line    0x0000d017      0x189 f:/quatus/nios2eds/bin/gnu/h-i686-mingw32/bin/../lib/gcc/nios2-elf/4.1.2\libgcc.a(_usi_to_df.o)
 .debug_line    0x0000d1a0       0xaa f:/quatus/nios2eds/bin/gnu/h-i686-mingw32/bin/../lib/gcc/nios2-elf/4.1.2\libgcc.a(_clz.o)
 .debug_line    0x0000d24a      0x105 f:/quatus/nios2eds/bin/gnu/h-i686-mingw32/bin/../lib/gcc/nios2-elf/4.1.2\libgcc.a(_clzsi2.o)
 .debug_line    0x0000d34f      0x222 f:/quatus/nios2eds/bin/gnu/h-i686-mingw32/bin/../lib/gcc/nios2-elf/4.1.2\libgcc.a(_pack_df.o)
 .debug_line    0x0000d571      0x1e4 f:/quatus/nios2eds/bin/gnu/h-i686-mingw32/bin/../lib/gcc/nios2-elf/4.1.2\libgcc.a(_unpack_df.o)
 .debug_line    0x0000d755      0x187 f:/quatus/nios2eds/bin/gnu/h-i686-mingw32/bin/../lib/gcc/nios2-elf/4.1.2\libgcc.a(_fpcmp_parts_df.o)
 .debug_line    0x0000d8dc      0x289 ../homework_bsp/\libhal_bsp.a(alt_close.o)
 .debug_line    0x0000db65      0x244 ../homework_bsp/\libhal_bsp.a(alt_dev.o)
 .debug_line    0x0000dda9      0x19a ../homework_bsp/\libhal_bsp.a(alt_errno.o)
 .debug_line    0x0000df43      0x291 ../homework_bsp/\libhal_bsp.a(alt_fstat.o)
 .debug_line    0x0000e1d4      0x2f3 ../homework_bsp/\libhal_bsp.a(alt_irq_register.o)
 .debug_line    0x0000e4c7       0x72 ../homework_bsp/\libhal_bsp.a(alt_irq_vars.o)
 .debug_line    0x0000e539      0x292 ../homework_bsp/\libhal_bsp.a(alt_isatty.o)
 .debug_line    0x0000e7cb      0x207 ../homework_bsp/\libhal_bsp.a(alt_load.o)
 .debug_line    0x0000e9d2      0x291 ../homework_bsp/\libhal_bsp.a(alt_lseek.o)
 .debug_line    0x0000ec63      0x2ba ../homework_bsp/\libhal_bsp.a(alt_main.o)
 .debug_line    0x0000ef1d      0x1f7 ../homework_bsp/\libhal_bsp.a(alt_malloc_lock.o)
 .debug_line    0x0000f114      0x2b8 ../homework_bsp/\libhal_bsp.a(alt_read.o)
 .debug_line    0x0000f3cc       0xed ../homework_bsp/\libhal_bsp.a(alt_release_fd.o)
 .debug_line    0x0000f4b9      0x251 ../homework_bsp/\libhal_bsp.a(alt_sbrk.o)
 .debug_line    0x0000f70a      0x2b9 ../homework_bsp/\libhal_bsp.a(alt_write.o)
 .debug_line    0x0000f9c3      0x32f ../homework_bsp/\libhal_bsp.a(alt_sys_init.o)
 .debug_line    0x0000fcf2      0x7c3 ../homework_bsp/\libhal_bsp.a(altera_avalon_dma.o)
 .debug_line    0x000104b5      0x20f ../homework_bsp/\libhal_bsp.a(altera_avalon_jtag_uart_fd.o)
 .debug_line    0x000106c4      0x49b ../homework_bsp/\libhal_bsp.a(altera_avalon_jtag_uart_init.o)
 .debug_line    0x00010b5f      0x307 ../homework_bsp/\libhal_bsp.a(altera_avalon_jtag_uart_ioctl.o)
 .debug_line    0x00010e66      0x3e7 ../homework_bsp/\libhal_bsp.a(altera_avalon_jtag_uart_read.o)
 .debug_line    0x0001124d      0x3f5 ../homework_bsp/\libhal_bsp.a(altera_avalon_jtag_uart_write.o)
 .debug_line    0x00011642      0x22a ../homework_bsp/\libhal_bsp.a(altera_avalon_timer_vars.o)
 .debug_line    0x0001186c      0x1ca ../homework_bsp/\libhal_bsp.a(altera_avalon_uart_fd.o)
 .debug_line    0x00011a36      0x482 ../homework_bsp/\libhal_bsp.a(altera_avalon_uart_init.o)
 .debug_line    0x00011eb8      0x3f4 ../homework_bsp/\libhal_bsp.a(altera_avalon_uart_read.o)
 .debug_line    0x000122ac      0x3d5 ../homework_bsp/\libhal_bsp.a(altera_avalon_uart_write.o)
 .debug_line    0x00012681      0x2cc ../homework_bsp/\libhal_bsp.a(alt_alarm_start.o)
 .debug_line    0x0001294d      0x1bd ../homework_bsp/\libhal_bsp.a(alt_dcache_flush_all.o)
 .debug_line    0x00012b0a      0x24a ../homework_bsp/\libhal_bsp.a(alt_dev_llist_insert.o)
 .debug_line    0x00012d54      0x250 ../homework_bsp/\libhal_bsp.a(alt_dma_rxchan_open.o)
 .debug_line    0x00012fa4      0x250 ../homework_bsp/\libhal_bsp.a(alt_dma_txchan_open.o)
 .debug_line    0x000131f4       0x83 ../homework_bsp/\libhal_bsp.a(alt_do_ctors.o)
 .debug_line    0x00013277       0x83 ../homework_bsp/\libhal_bsp.a(alt_do_dtors.o)
 .debug_line    0x000132fa      0x25b ../homework_bsp/\libhal_bsp.a(alt_find_dev.o)
 .debug_line    0x00013555      0x1ad ../homework_bsp/\libhal_bsp.a(alt_icache_flush_all.o)
 .debug_line    0x00013702      0x2b8 ../homework_bsp/\libhal_bsp.a(alt_iic.o)
 .debug_line    0x000139ba      0x239 ../homework_bsp/\libhal_bsp.a(alt_iic_isr_register.o)
 .debug_line    0x00013bf3      0x2a4 ../homework_bsp/\libhal_bsp.a(alt_io_redirect.o)
 .debug_line    0x00013e97       0x6b ../homework_bsp/\libhal_bsp.a(alt_irq_entry.o)
 .debug_line    0x00013f02      0x238 ../homework_bsp/\libhal_bsp.a(alt_irq_handler.o)
 .debug_line    0x0001413a      0x2ef ../homework_bsp/\libhal_bsp.a(alt_open.o)
 .debug_line    0x00014429      0x2cc ../homework_bsp/\libhal_bsp.a(alt_tick.o)
 .debug_line    0x000146f5      0x1be ../homework_bsp/\libhal_bsp.a(altera_nios2_qsys_irq.o)
 .debug_line    0x000148b3       0xab ../homework_bsp/\libhal_bsp.a(alt_exception_entry.o)
 .debug_line    0x0001495e      0x26c ../homework_bsp/\libhal_bsp.a(alt_find_file.o)
 .debug_line    0x00014bca      0x287 ../homework_bsp/\libhal_bsp.a(alt_get_fd.o)
 .debug_line    0x00014e51      0x1e9 ../homework_bsp/\libhal_bsp.a(alt_icache_flush.o)
 .debug_line    0x0001503a      0x200 f:/quatus/nios2eds/bin/gnu/h-i686-mingw32/bin/../lib/gcc/nios2-elf/4.1.2/../../../../nios2-elf/lib\libc.a(lib_a-atexit.o)
 .debug_line    0x0001523a      0x238 f:/quatus/nios2eds/bin/gnu/h-i686-mingw32/bin/../lib/gcc/nios2-elf/4.1.2/../../../../nios2-elf/lib\libc.a(lib_a-exit.o)
 .debug_line    0x00015472      0x29f f:/quatus/nios2eds/bin/gnu/h-i686-mingw32/bin/../lib/gcc/nios2-elf/4.1.2/../../../../nios2-elf/lib\libc.a(lib_a-memcmp.o)
 .debug_line    0x00015711      0x313 f:/quatus/nios2eds/bin/gnu/h-i686-mingw32/bin/../lib/gcc/nios2-elf/4.1.2/../../../../nios2-elf/lib\libc.a(lib_a-__atexit.o)
 .debug_line    0x00015a24      0x367 f:/quatus/nios2eds/bin/gnu/h-i686-mingw32/bin/../lib/gcc/nios2-elf/4.1.2/../../../../nios2-elf/lib\libc.a(lib_a-__call_atexit.o)
 .debug_line    0x00015d8b      0x1f6 ../homework_bsp/\libhal_bsp.a(alt_exit.o)

.debug_frame    0x00000000     0x1d1c
 *(.debug_frame)
 .debug_frame   0x00000000       0x2c obj/default/hello_world.o
 .debug_frame   0x0000002c       0x80 obj/default/pio.o
 .debug_frame   0x000000ac       0x80 obj/default/timebt.o
 .debug_frame   0x0000012c       0x2c f:/quatus/nios2eds/bin/gnu/h-i686-mingw32/bin/../lib/gcc/nios2-elf/4.1.2\libgcc.a(_mul_sf.o)
 .debug_frame   0x00000158       0x28 f:/quatus/nios2eds/bin/gnu/h-i686-mingw32/bin/../lib/gcc/nios2-elf/4.1.2\libgcc.a(_sf_to_si.o)
 .debug_frame   0x00000180       0x70 f:/quatus/nios2eds/bin/gnu/h-i686-mingw32/bin/../lib/gcc/nios2-elf/4.1.2\libgcc.a(lib2-divmod.o)
 .debug_frame   0x000001f0       0x2c f:/quatus/nios2eds/bin/gnu/h-i686-mingw32/bin/../lib/gcc/nios2-elf/4.1.2\libgcc.a(_muldi3.o)
 .debug_frame   0x0000021c       0x20 f:/quatus/nios2eds/bin/gnu/h-i686-mingw32/bin/../lib/gcc/nios2-elf/4.1.2\libgcc.a(_pack_sf.o)
 .debug_frame   0x0000023c       0x20 f:/quatus/nios2eds/bin/gnu/h-i686-mingw32/bin/../lib/gcc/nios2-elf/4.1.2\libgcc.a(_unpack_sf.o)
 .debug_frame   0x0000025c       0x40 f:/quatus/nios2eds/bin/gnu/h-i686-mingw32/bin/../lib/gcc/nios2-elf/4.1.2/../../../../nios2-elf/lib\libc.a(lib_a-printf.o)
 .debug_frame   0x0000029c       0x3c f:/quatus/nios2eds/bin/gnu/h-i686-mingw32/bin/../lib/gcc/nios2-elf/4.1.2/../../../../nios2-elf/lib\libc.a(lib_a-puts.o)
 .debug_frame   0x000002d8       0x20 f:/quatus/nios2eds/bin/gnu/h-i686-mingw32/bin/../lib/gcc/nios2-elf/4.1.2/../../../../nios2-elf/lib\libc.a(lib_a-strlen.o)
 .debug_frame   0x000002f8       0x64 f:/quatus/nios2eds/bin/gnu/h-i686-mingw32/bin/../lib/gcc/nios2-elf/4.1.2/../../../../nios2-elf/lib\libc.a(lib_a-vfprintf.o)
 .debug_frame   0x0000035c       0x2c f:/quatus/nios2eds/bin/gnu/h-i686-mingw32/bin/../lib/gcc/nios2-elf/4.1.2/../../../../nios2-elf/lib\libc.a(lib_a-wsetup.o)
 .debug_frame   0x00000388       0x64 f:/quatus/nios2eds/bin/gnu/h-i686-mingw32/bin/../lib/gcc/nios2-elf/4.1.2/../../../../nios2-elf/lib\libc.a(lib_a-dtoa.o)
 .debug_frame   0x000003ec       0x40 f:/quatus/nios2eds/bin/gnu/h-i686-mingw32/bin/../lib/gcc/nios2-elf/4.1.2/../../../../nios2-elf/lib\libc.a(lib_a-fflush.o)
 .debug_frame   0x0000042c      0x118 f:/quatus/nios2eds/bin/gnu/h-i686-mingw32/bin/../lib/gcc/nios2-elf/4.1.2/../../../../nios2-elf/lib\libc.a(lib_a-findfp.o)
 .debug_frame   0x00000544       0x4c f:/quatus/nios2eds/bin/gnu/h-i686-mingw32/bin/../lib/gcc/nios2-elf/4.1.2/../../../../nios2-elf/lib\libc.a(lib_a-freer.o)
 .debug_frame   0x00000590       0x38 f:/quatus/nios2eds/bin/gnu/h-i686-mingw32/bin/../lib/gcc/nios2-elf/4.1.2/../../../../nios2-elf/lib\libc.a(lib_a-fvwrite.o)
 .debug_frame   0x000005c8       0x60 f:/quatus/nios2eds/bin/gnu/h-i686-mingw32/bin/../lib/gcc/nios2-elf/4.1.2/../../../../nios2-elf/lib\libc.a(lib_a-fwalk.o)
 .debug_frame   0x00000628       0x70 f:/quatus/nios2eds/bin/gnu/h-i686-mingw32/bin/../lib/gcc/nios2-elf/4.1.2/../../../../nios2-elf/lib\libc.a(lib_a-locale.o)
 .debug_frame   0x00000698       0x2c f:/quatus/nios2eds/bin/gnu/h-i686-mingw32/bin/../lib/gcc/nios2-elf/4.1.2/../../../../nios2-elf/lib\libc.a(lib_a-makebuf.o)
 .debug_frame   0x000006c4       0x38 f:/quatus/nios2eds/bin/gnu/h-i686-mingw32/bin/../lib/gcc/nios2-elf/4.1.2/../../../../nios2-elf/lib\libc.a(lib_a-mallocr.o)
 .debug_frame   0x000006fc       0x20 f:/quatus/nios2eds/bin/gnu/h-i686-mingw32/bin/../lib/gcc/nios2-elf/4.1.2/../../../../nios2-elf/lib\libc.a(lib_a-memchr.o)
 .debug_frame   0x0000071c       0x20 f:/quatus/nios2eds/bin/gnu/h-i686-mingw32/bin/../lib/gcc/nios2-elf/4.1.2/../../../../nios2-elf/lib\libc.a(lib_a-memcpy.o)
 .debug_frame   0x0000073c       0x20 f:/quatus/nios2eds/bin/gnu/h-i686-mingw32/bin/../lib/gcc/nios2-elf/4.1.2/../../../../nios2-elf/lib\libc.a(lib_a-memmove.o)
 .debug_frame   0x0000075c       0x20 f:/quatus/nios2eds/bin/gnu/h-i686-mingw32/bin/../lib/gcc/nios2-elf/4.1.2/../../../../nios2-elf/lib\libc.a(lib_a-memset.o)
 .debug_frame   0x0000077c      0x218 f:/quatus/nios2eds/bin/gnu/h-i686-mingw32/bin/../lib/gcc/nios2-elf/4.1.2/../../../../nios2-elf/lib\libc.a(lib_a-mprec.o)
 .debug_frame   0x00000994       0x38 f:/quatus/nios2eds/bin/gnu/h-i686-mingw32/bin/../lib/gcc/nios2-elf/4.1.2/../../../../nios2-elf/lib\libc.a(lib_a-reallocr.o)
 .debug_frame   0x000009cc       0x20 f:/quatus/nios2eds/bin/gnu/h-i686-mingw32/bin/../lib/gcc/nios2-elf/4.1.2/../../../../nios2-elf/lib\libc.a(lib_a-s_isinfd.o)
 .debug_frame   0x000009ec       0x20 f:/quatus/nios2eds/bin/gnu/h-i686-mingw32/bin/../lib/gcc/nios2-elf/4.1.2/../../../../nios2-elf/lib\libc.a(lib_a-s_isnand.o)
 .debug_frame   0x00000a0c       0x2c f:/quatus/nios2eds/bin/gnu/h-i686-mingw32/bin/../lib/gcc/nios2-elf/4.1.2/../../../../nios2-elf/lib\libc.a(lib_a-sbrkr.o)
 .debug_frame   0x00000a38       0x78 f:/quatus/nios2eds/bin/gnu/h-i686-mingw32/bin/../lib/gcc/nios2-elf/4.1.2/../../../../nios2-elf/lib\libc.a(lib_a-stdio.o)
 .debug_frame   0x00000ab0       0x20 f:/quatus/nios2eds/bin/gnu/h-i686-mingw32/bin/../lib/gcc/nios2-elf/4.1.2/../../../../nios2-elf/lib\libc.a(lib_a-strcmp.o)
 .debug_frame   0x00000ad0       0x2c f:/quatus/nios2eds/bin/gnu/h-i686-mingw32/bin/../lib/gcc/nios2-elf/4.1.2/../../../../nios2-elf/lib\libc.a(lib_a-writer.o)
 .debug_frame   0x00000afc       0x28 f:/quatus/nios2eds/bin/gnu/h-i686-mingw32/bin/../lib/gcc/nios2-elf/4.1.2/../../../../nios2-elf/lib\libc.a(lib_a-callocr.o)
 .debug_frame   0x00000b24       0x2c f:/quatus/nios2eds/bin/gnu/h-i686-mingw32/bin/../lib/gcc/nios2-elf/4.1.2/../../../../nios2-elf/lib\libc.a(lib_a-closer.o)
 .debug_frame   0x00000b50       0x3c f:/quatus/nios2eds/bin/gnu/h-i686-mingw32/bin/../lib/gcc/nios2-elf/4.1.2/../../../../nios2-elf/lib\libc.a(lib_a-fclose.o)
 .debug_frame   0x00000b8c       0x2c f:/quatus/nios2eds/bin/gnu/h-i686-mingw32/bin/../lib/gcc/nios2-elf/4.1.2/../../../../nios2-elf/lib\libc.a(lib_a-fstatr.o)
 .debug_frame   0x00000bb8       0x2c f:/quatus/nios2eds/bin/gnu/h-i686-mingw32/bin/../lib/gcc/nios2-elf/4.1.2/../../../../nios2-elf/lib\libc.a(lib_a-isattyr.o)
 .debug_frame   0x00000be4       0x2c f:/quatus/nios2eds/bin/gnu/h-i686-mingw32/bin/../lib/gcc/nios2-elf/4.1.2/../../../../nios2-elf/lib\libc.a(lib_a-lseekr.o)
 .debug_frame   0x00000c10       0x2c f:/quatus/nios2eds/bin/gnu/h-i686-mingw32/bin/../lib/gcc/nios2-elf/4.1.2/../../../../nios2-elf/lib\libc.a(lib_a-readr.o)
 .debug_frame   0x00000c3c       0x38 f:/quatus/nios2eds/bin/gnu/h-i686-mingw32/bin/../lib/gcc/nios2-elf/4.1.2\libgcc.a(_udivdi3.o)
 .debug_frame   0x00000c74       0x38 f:/quatus/nios2eds/bin/gnu/h-i686-mingw32/bin/../lib/gcc/nios2-elf/4.1.2\libgcc.a(_umoddi3.o)
 .debug_frame   0x00000cac       0x70 f:/quatus/nios2eds/bin/gnu/h-i686-mingw32/bin/../lib/gcc/nios2-elf/4.1.2\libgcc.a(_addsub_df.o)
 .debug_frame   0x00000d1c       0x3c f:/quatus/nios2eds/bin/gnu/h-i686-mingw32/bin/../lib/gcc/nios2-elf/4.1.2\libgcc.a(_mul_df.o)
 .debug_frame   0x00000d58       0x30 f:/quatus/nios2eds/bin/gnu/h-i686-mingw32/bin/../lib/gcc/nios2-elf/4.1.2\libgcc.a(_div_df.o)
 .debug_frame   0x00000d88       0x2c f:/quatus/nios2eds/bin/gnu/h-i686-mingw32/bin/../lib/gcc/nios2-elf/4.1.2\libgcc.a(_eq_df.o)
 .debug_frame   0x00000db4       0x2c f:/quatus/nios2eds/bin/gnu/h-i686-mingw32/bin/../lib/gcc/nios2-elf/4.1.2\libgcc.a(_ne_df.o)
 .debug_frame   0x00000de0       0x2c f:/quatus/nios2eds/bin/gnu/h-i686-mingw32/bin/../lib/gcc/nios2-elf/4.1.2\libgcc.a(_gt_df.o)
 .debug_frame   0x00000e0c       0x2c f:/quatus/nios2eds/bin/gnu/h-i686-mingw32/bin/../lib/gcc/nios2-elf/4.1.2\libgcc.a(_ge_df.o)
 .debug_frame   0x00000e38       0x2c f:/quatus/nios2eds/bin/gnu/h-i686-mingw32/bin/../lib/gcc/nios2-elf/4.1.2\libgcc.a(_lt_df.o)
 .debug_frame   0x00000e64       0x30 f:/quatus/nios2eds/bin/gnu/h-i686-mingw32/bin/../lib/gcc/nios2-elf/4.1.2\libgcc.a(_si_to_df.o)
 .debug_frame   0x00000e94       0x28 f:/quatus/nios2eds/bin/gnu/h-i686-mingw32/bin/../lib/gcc/nios2-elf/4.1.2\libgcc.a(_df_to_si.o)
 .debug_frame   0x00000ebc       0x38 f:/quatus/nios2eds/bin/gnu/h-i686-mingw32/bin/../lib/gcc/nios2-elf/4.1.2\libgcc.a(_usi_to_df.o)
 .debug_frame   0x00000ef4       0x20 f:/quatus/nios2eds/bin/gnu/h-i686-mingw32/bin/../lib/gcc/nios2-elf/4.1.2\libgcc.a(_clzsi2.o)
 .debug_frame   0x00000f14       0x2c f:/quatus/nios2eds/bin/gnu/h-i686-mingw32/bin/../lib/gcc/nios2-elf/4.1.2\libgcc.a(_pack_df.o)
 .debug_frame   0x00000f40       0x20 f:/quatus/nios2eds/bin/gnu/h-i686-mingw32/bin/../lib/gcc/nios2-elf/4.1.2\libgcc.a(_unpack_df.o)
 .debug_frame   0x00000f60       0x20 f:/quatus/nios2eds/bin/gnu/h-i686-mingw32/bin/../lib/gcc/nios2-elf/4.1.2\libgcc.a(_fpcmp_parts_df.o)
 .debug_frame   0x00000f80       0x48 ../homework_bsp/\libhal_bsp.a(alt_close.o)
 .debug_frame   0x00000fc8       0x2c ../homework_bsp/\libhal_bsp.a(alt_dev.o)
 .debug_frame   0x00000ff4       0x48 ../homework_bsp/\libhal_bsp.a(alt_fstat.o)
 .debug_frame   0x0000103c       0x2c ../homework_bsp/\libhal_bsp.a(alt_irq_register.o)
 .debug_frame   0x00001068       0x48 ../homework_bsp/\libhal_bsp.a(alt_isatty.o)
 .debug_frame   0x000010b0       0x48 ../homework_bsp/\libhal_bsp.a(alt_load.o)
 .debug_frame   0x000010f8       0x48 ../homework_bsp/\libhal_bsp.a(alt_lseek.o)
 .debug_frame   0x00001140       0x2c ../homework_bsp/\libhal_bsp.a(alt_main.o)
 .debug_frame   0x0000116c       0x48 ../homework_bsp/\libhal_bsp.a(alt_malloc_lock.o)
 .debug_frame   0x000011b4       0x48 ../homework_bsp/\libhal_bsp.a(alt_read.o)
 .debug_frame   0x000011fc       0x2c ../homework_bsp/\libhal_bsp.a(alt_release_fd.o)
 .debug_frame   0x00001228       0x2c ../homework_bsp/\libhal_bsp.a(alt_sbrk.o)
 .debug_frame   0x00001254       0x48 ../homework_bsp/\libhal_bsp.a(alt_write.o)
 .debug_frame   0x0000129c       0x64 ../homework_bsp/\libhal_bsp.a(alt_sys_init.o)
 .debug_frame   0x00001300      0x17c ../homework_bsp/\libhal_bsp.a(altera_avalon_dma.o)
 .debug_frame   0x0000147c       0x80 ../homework_bsp/\libhal_bsp.a(altera_avalon_jtag_uart_fd.o)
 .debug_frame   0x000014fc       0x80 ../homework_bsp/\libhal_bsp.a(altera_avalon_jtag_uart_init.o)
 .debug_frame   0x0000157c       0x2c ../homework_bsp/\libhal_bsp.a(altera_avalon_jtag_uart_ioctl.o)
 .debug_frame   0x000015a8       0x2c ../homework_bsp/\libhal_bsp.a(altera_avalon_jtag_uart_read.o)
 .debug_frame   0x000015d4       0x2c ../homework_bsp/\libhal_bsp.a(altera_avalon_jtag_uart_write.o)
 .debug_frame   0x00001600       0x64 ../homework_bsp/\libhal_bsp.a(altera_avalon_uart_fd.o)
 .debug_frame   0x00001664       0x9c ../homework_bsp/\libhal_bsp.a(altera_avalon_uart_init.o)
 .debug_frame   0x00001700       0x48 ../homework_bsp/\libhal_bsp.a(altera_avalon_uart_read.o)
 .debug_frame   0x00001748       0x48 ../homework_bsp/\libhal_bsp.a(altera_avalon_uart_write.o)
 .debug_frame   0x00001790       0x2c ../homework_bsp/\libhal_bsp.a(alt_alarm_start.o)
 .debug_frame   0x000017bc       0x2c ../homework_bsp/\libhal_bsp.a(alt_dcache_flush_all.o)
 .debug_frame   0x000017e8       0x48 ../homework_bsp/\libhal_bsp.a(alt_dev_llist_insert.o)
 .debug_frame   0x00001830       0x48 ../homework_bsp/\libhal_bsp.a(alt_dma_rxchan_open.o)
 .debug_frame   0x00001878       0x48 ../homework_bsp/\libhal_bsp.a(alt_dma_txchan_open.o)
 .debug_frame   0x000018c0       0x2c ../homework_bsp/\libhal_bsp.a(alt_do_ctors.o)
 .debug_frame   0x000018ec       0x2c ../homework_bsp/\libhal_bsp.a(alt_do_dtors.o)
 .debug_frame   0x00001918       0x2c ../homework_bsp/\libhal_bsp.a(alt_find_dev.o)
 .debug_frame   0x00001944       0x2c ../homework_bsp/\libhal_bsp.a(alt_icache_flush_all.o)
 .debug_frame   0x00001970       0x80 ../homework_bsp/\libhal_bsp.a(alt_iic.o)
 .debug_frame   0x000019f0       0x2c ../homework_bsp/\libhal_bsp.a(alt_iic_isr_register.o)
 .debug_frame   0x00001a1c       0x48 ../homework_bsp/\libhal_bsp.a(alt_io_redirect.o)
 .debug_frame   0x00001a64       0x2c ../homework_bsp/\libhal_bsp.a(alt_irq_handler.o)
 .debug_frame   0x00001a90       0x64 ../homework_bsp/\libhal_bsp.a(alt_open.o)
 .debug_frame   0x00001af4       0x48 ../homework_bsp/\libhal_bsp.a(alt_tick.o)
 .debug_frame   0x00001b3c       0x2c ../homework_bsp/\libhal_bsp.a(altera_nios2_qsys_irq.o)
 .debug_frame   0x00001b68       0x2c ../homework_bsp/\libhal_bsp.a(alt_find_file.o)
 .debug_frame   0x00001b94       0x2c ../homework_bsp/\libhal_bsp.a(alt_get_fd.o)
 .debug_frame   0x00001bc0       0x2c ../homework_bsp/\libhal_bsp.a(alt_icache_flush.o)
 .debug_frame   0x00001bec       0x20 f:/quatus/nios2eds/bin/gnu/h-i686-mingw32/bin/../lib/gcc/nios2-elf/4.1.2/../../../../nios2-elf/lib\libc.a(lib_a-atexit.o)
 .debug_frame   0x00001c0c       0x28 f:/quatus/nios2eds/bin/gnu/h-i686-mingw32/bin/../lib/gcc/nios2-elf/4.1.2/../../../../nios2-elf/lib\libc.a(lib_a-exit.o)
 .debug_frame   0x00001c34       0x20 f:/quatus/nios2eds/bin/gnu/h-i686-mingw32/bin/../lib/gcc/nios2-elf/4.1.2/../../../../nios2-elf/lib\libc.a(lib_a-memcmp.o)
 .debug_frame   0x00001c54       0x34 f:/quatus/nios2eds/bin/gnu/h-i686-mingw32/bin/../lib/gcc/nios2-elf/4.1.2/../../../../nios2-elf/lib\libc.a(lib_a-__atexit.o)
 .debug_frame   0x00001c88       0x4c f:/quatus/nios2eds/bin/gnu/h-i686-mingw32/bin/../lib/gcc/nios2-elf/4.1.2/../../../../nios2-elf/lib\libc.a(lib_a-__call_atexit.o)
 .debug_frame   0x00001cd4       0x48 ../homework_bsp/\libhal_bsp.a(alt_exit.o)

.debug_str      0x00000000     0x22e4
 *(.debug_str)
 .debug_str     0x00000000       0x12 obj/default/hello_world.o
 .debug_str     0x00000012       0x12 obj/default/pio.o
 .debug_str     0x00000024       0x12 obj/default/timebt.o
 .debug_str     0x00000036      0x1c2 f:/quatus/nios2eds/bin/gnu/h-i686-mingw32/bin/../lib/gcc/nios2-elf/4.1.2\libgcc.a(_mul_sf.o)
                                0x220 (size before relaxing)
 .debug_str     0x000001f8        0xa f:/quatus/nios2eds/bin/gnu/h-i686-mingw32/bin/../lib/gcc/nios2-elf/4.1.2\libgcc.a(_sf_to_si.o)
                                0x201 (size before relaxing)
 .debug_str     0x00000000      0x1a3 f:/quatus/nios2eds/bin/gnu/h-i686-mingw32/bin/../lib/gcc/nios2-elf/4.1.2\libgcc.a(_thenan_sf.o)
 .debug_str     0x00000202       0xa1 f:/quatus/nios2eds/bin/gnu/h-i686-mingw32/bin/../lib/gcc/nios2-elf/4.1.2\libgcc.a(lib2-divmod.o)
                                0x1b4 (size before relaxing)
 .debug_str     0x000002a3       0x62 f:/quatus/nios2eds/bin/gnu/h-i686-mingw32/bin/../lib/gcc/nios2-elf/4.1.2\libgcc.a(_muldi3.o)
                                0x1ac (size before relaxing)
 .debug_str     0x00000305       0x10 f:/quatus/nios2eds/bin/gnu/h-i686-mingw32/bin/../lib/gcc/nios2-elf/4.1.2\libgcc.a(_pack_sf.o)
                                0x200 (size before relaxing)
 .debug_str     0x00000315        0xb f:/quatus/nios2eds/bin/gnu/h-i686-mingw32/bin/../lib/gcc/nios2-elf/4.1.2\libgcc.a(_unpack_sf.o)
                                0x1e2 (size before relaxing)
 .debug_str     0x00000320      0x43f f:/quatus/nios2eds/bin/gnu/h-i686-mingw32/bin/../lib/gcc/nios2-elf/4.1.2/../../../../nios2-elf/lib\libc.a(lib_a-printf.o)
                                0x523 (size before relaxing)
 .debug_str     0x0000075f       0x81 f:/quatus/nios2eds/bin/gnu/h-i686-mingw32/bin/../lib/gcc/nios2-elf/4.1.2/../../../../nios2-elf/lib\libc.a(lib_a-puts.o)
                                0x549 (size before relaxing)
 .debug_str     0x000007e0       0xdb f:/quatus/nios2eds/bin/gnu/h-i686-mingw32/bin/../lib/gcc/nios2-elf/4.1.2/../../../../nios2-elf/lib\libc.a(lib_a-strlen.o)
                                0x17d (size before relaxing)
 .debug_str     0x000008bb      0x185 f:/quatus/nios2eds/bin/gnu/h-i686-mingw32/bin/../lib/gcc/nios2-elf/4.1.2/../../../../nios2-elf/lib\libc.a(lib_a-vfprintf.o)
                                0x6f8 (size before relaxing)
 .debug_str     0x00000a40       0x46 f:/quatus/nios2eds/bin/gnu/h-i686-mingw32/bin/../lib/gcc/nios2-elf/4.1.2/../../../../nios2-elf/lib\libc.a(lib_a-wsetup.o)
                                0x50c (size before relaxing)
 .debug_str     0x00000a86      0x18e f:/quatus/nios2eds/bin/gnu/h-i686-mingw32/bin/../lib/gcc/nios2-elf/4.1.2/../../../../nios2-elf/lib\libc.a(lib_a-dtoa.o)
                                0x601 (size before relaxing)
 .debug_str     0x00000c14       0x65 f:/quatus/nios2eds/bin/gnu/h-i686-mingw32/bin/../lib/gcc/nios2-elf/4.1.2/../../../../nios2-elf/lib\libc.a(lib_a-fflush.o)
                                0x532 (size before relaxing)
 .debug_str     0x00000c79      0x102 f:/quatus/nios2eds/bin/gnu/h-i686-mingw32/bin/../lib/gcc/nios2-elf/4.1.2/../../../../nios2-elf/lib\libc.a(lib_a-findfp.o)
                                0x5f4 (size before relaxing)
 .debug_str     0x00000d7b      0x15b f:/quatus/nios2eds/bin/gnu/h-i686-mingw32/bin/../lib/gcc/nios2-elf/4.1.2/../../../../nios2-elf/lib\libc.a(lib_a-freer.o)
                                0x643 (size before relaxing)
 .debug_str     0x00000ed6       0x66 f:/quatus/nios2eds/bin/gnu/h-i686-mingw32/bin/../lib/gcc/nios2-elf/4.1.2/../../../../nios2-elf/lib\libc.a(lib_a-fvwrite.o)
                                0x563 (size before relaxing)
 .debug_str     0x00000f3c       0x5e f:/quatus/nios2eds/bin/gnu/h-i686-mingw32/bin/../lib/gcc/nios2-elf/4.1.2/../../../../nios2-elf/lib\libc.a(lib_a-fwalk.o)
                                0x535 (size before relaxing)
 .debug_str     0x00000f9a       0xd1 f:/quatus/nios2eds/bin/gnu/h-i686-mingw32/bin/../lib/gcc/nios2-elf/4.1.2/../../../../nios2-elf/lib\libc.a(lib_a-impure.o)
                                0x51a (size before relaxing)
 .debug_str     0x0000106b      0x225 f:/quatus/nios2eds/bin/gnu/h-i686-mingw32/bin/../lib/gcc/nios2-elf/4.1.2/../../../../nios2-elf/lib\libc.a(lib_a-locale.o)
                                0x6a9 (size before relaxing)
 .debug_str     0x00001290      0x123 f:/quatus/nios2eds/bin/gnu/h-i686-mingw32/bin/../lib/gcc/nios2-elf/4.1.2/../../../../nios2-elf/lib\libc.a(lib_a-makebuf.o)
                                0x606 (size before relaxing)
 .debug_str     0x000013b3       0xef f:/quatus/nios2eds/bin/gnu/h-i686-mingw32/bin/../lib/gcc/nios2-elf/4.1.2/../../../../nios2-elf/lib\libc.a(lib_a-mallocr.o)
                                0x6f1 (size before relaxing)
 .debug_str     0x000014a2       0x5c f:/quatus/nios2eds/bin/gnu/h-i686-mingw32/bin/../lib/gcc/nios2-elf/4.1.2/../../../../nios2-elf/lib\libc.a(lib_a-memchr.o)
                                0x18b (size before relaxing)
 .debug_str     0x000014fe       0x69 f:/quatus/nios2eds/bin/gnu/h-i686-mingw32/bin/../lib/gcc/nios2-elf/4.1.2/../../../../nios2-elf/lib\libc.a(lib_a-memcpy.o)
                                0x128 (size before relaxing)
 .debug_str     0x00001567       0x4d f:/quatus/nios2eds/bin/gnu/h-i686-mingw32/bin/../lib/gcc/nios2-elf/4.1.2/../../../../nios2-elf/lib\libc.a(lib_a-memmove.o)
                                0x19d (size before relaxing)
 .debug_str     0x000015b4       0x42 f:/quatus/nios2eds/bin/gnu/h-i686-mingw32/bin/../lib/gcc/nios2-elf/4.1.2/../../../../nios2-elf/lib\libc.a(lib_a-memset.o)
                                0x17e (size before relaxing)
 .debug_str     0x000015f6       0xf8 f:/quatus/nios2eds/bin/gnu/h-i686-mingw32/bin/../lib/gcc/nios2-elf/4.1.2/../../../../nios2-elf/lib\libc.a(lib_a-mprec.o)
                                0x60e (size before relaxing)
 .debug_str     0x000016ee       0x59 f:/quatus/nios2eds/bin/gnu/h-i686-mingw32/bin/../lib/gcc/nios2-elf/4.1.2/../../../../nios2-elf/lib\libc.a(lib_a-reallocr.o)
                                0x5c3 (size before relaxing)
 .debug_str     0x00001747       0xdc f:/quatus/nios2eds/bin/gnu/h-i686-mingw32/bin/../lib/gcc/nios2-elf/4.1.2/../../../../nios2-elf/lib\libc.a(lib_a-s_isinfd.o)
                                0x18a (size before relaxing)
 .debug_str     0x00001823       0x46 f:/quatus/nios2eds/bin/gnu/h-i686-mingw32/bin/../lib/gcc/nios2-elf/4.1.2/../../../../nios2-elf/lib\libc.a(lib_a-s_isnand.o)
                                0x18a (size before relaxing)
 .debug_str     0x00001869       0x50 f:/quatus/nios2eds/bin/gnu/h-i686-mingw32/bin/../lib/gcc/nios2-elf/4.1.2/../../../../nios2-elf/lib\libc.a(lib_a-sbrkr.o)
                                0x50b (size before relaxing)
 .debug_str     0x000018b9       0x62 f:/quatus/nios2eds/bin/gnu/h-i686-mingw32/bin/../lib/gcc/nios2-elf/4.1.2/../../../../nios2-elf/lib\libc.a(lib_a-stdio.o)
                                0x531 (size before relaxing)
 .debug_str     0x0000191b       0x42 f:/quatus/nios2eds/bin/gnu/h-i686-mingw32/bin/../lib/gcc/nios2-elf/4.1.2/../../../../nios2-elf/lib\libc.a(lib_a-strcmp.o)
                                0x163 (size before relaxing)
 .debug_str     0x0000195d       0x4c f:/quatus/nios2eds/bin/gnu/h-i686-mingw32/bin/../lib/gcc/nios2-elf/4.1.2/../../../../nios2-elf/lib\libc.a(lib_a-writer.o)
                                0x50e (size before relaxing)
 .debug_str     0x000019a9       0x19 f:/quatus/nios2eds/bin/gnu/h-i686-mingw32/bin/../lib/gcc/nios2-elf/4.1.2/../../../../nios2-elf/lib\libc.a(lib_a-callocr.o)
                                0x542 (size before relaxing)
 .debug_str     0x000019c2       0x43 f:/quatus/nios2eds/bin/gnu/h-i686-mingw32/bin/../lib/gcc/nios2-elf/4.1.2/../../../../nios2-elf/lib\libc.a(lib_a-closer.o)
                                0x4fe (size before relaxing)
 .debug_str     0x00001a05       0x4b f:/quatus/nios2eds/bin/gnu/h-i686-mingw32/bin/../lib/gcc/nios2-elf/4.1.2/../../../../nios2-elf/lib\libc.a(lib_a-fclose.o)
                                0x516 (size before relaxing)
 .debug_str     0x00001a50       0x49 f:/quatus/nios2eds/bin/gnu/h-i686-mingw32/bin/../lib/gcc/nios2-elf/4.1.2/../../../../nios2-elf/lib\libc.a(lib_a-fstatr.o)
                                0x5f1 (size before relaxing)
 .debug_str     0x00001a99       0x3d f:/quatus/nios2eds/bin/gnu/h-i686-mingw32/bin/../lib/gcc/nios2-elf/4.1.2/../../../../nios2-elf/lib\libc.a(lib_a-int_errno.o)
                                0x163 (size before relaxing)
 .debug_str     0x00001ad6       0x45 f:/quatus/nios2eds/bin/gnu/h-i686-mingw32/bin/../lib/gcc/nios2-elf/4.1.2/../../../../nios2-elf/lib\libc.a(lib_a-isattyr.o)
                                0x500 (size before relaxing)
 .debug_str     0x00001b1b       0x43 f:/quatus/nios2eds/bin/gnu/h-i686-mingw32/bin/../lib/gcc/nios2-elf/4.1.2/../../../../nios2-elf/lib\libc.a(lib_a-lseekr.o)
                                0x50c (size before relaxing)
 .debug_str     0x00001b5e       0x41 f:/quatus/nios2eds/bin/gnu/h-i686-mingw32/bin/../lib/gcc/nios2-elf/4.1.2/../../../../nios2-elf/lib\libc.a(lib_a-readr.o)
                                0x50c (size before relaxing)
 .debug_str     0x00001b9f       0x4c f:/quatus/nios2eds/bin/gnu/h-i686-mingw32/bin/../lib/gcc/nios2-elf/4.1.2\libgcc.a(_udivdi3.o)
                                0x1f7 (size before relaxing)
 .debug_str     0x00001beb        0xa f:/quatus/nios2eds/bin/gnu/h-i686-mingw32/bin/../lib/gcc/nios2-elf/4.1.2\libgcc.a(_umoddi3.o)
                                0x1f7 (size before relaxing)
 .debug_str     0x00001bf5       0x89 f:/quatus/nios2eds/bin/gnu/h-i686-mingw32/bin/../lib/gcc/nios2-elf/4.1.2\libgcc.a(_addsub_df.o)
                                0x26f (size before relaxing)
 .debug_str     0x00001c7e       0x33 f:/quatus/nios2eds/bin/gnu/h-i686-mingw32/bin/../lib/gcc/nios2-elf/4.1.2\libgcc.a(_mul_df.o)
                                0x241 (size before relaxing)
 .debug_str     0x00001cb1       0x35 f:/quatus/nios2eds/bin/gnu/h-i686-mingw32/bin/../lib/gcc/nios2-elf/4.1.2\libgcc.a(_div_df.o)
                                0x231 (size before relaxing)
 .debug_str     0x00001ce6        0x8 f:/quatus/nios2eds/bin/gnu/h-i686-mingw32/bin/../lib/gcc/nios2-elf/4.1.2\libgcc.a(_eq_df.o)
                                0x1fe (size before relaxing)
 .debug_str     0x00001cee        0x8 f:/quatus/nios2eds/bin/gnu/h-i686-mingw32/bin/../lib/gcc/nios2-elf/4.1.2\libgcc.a(_ne_df.o)
                                0x1fe (size before relaxing)
 .debug_str     0x00001cf6        0x8 f:/quatus/nios2eds/bin/gnu/h-i686-mingw32/bin/../lib/gcc/nios2-elf/4.1.2\libgcc.a(_gt_df.o)
                                0x1fe (size before relaxing)
 .debug_str     0x00001cfe        0x8 f:/quatus/nios2eds/bin/gnu/h-i686-mingw32/bin/../lib/gcc/nios2-elf/4.1.2\libgcc.a(_ge_df.o)
                                0x1fe (size before relaxing)
 .debug_str     0x00001d06        0x8 f:/quatus/nios2eds/bin/gnu/h-i686-mingw32/bin/../lib/gcc/nios2-elf/4.1.2\libgcc.a(_lt_df.o)
                                0x1fe (size before relaxing)
 .debug_str     0x00001d0e       0x18 f:/quatus/nios2eds/bin/gnu/h-i686-mingw32/bin/../lib/gcc/nios2-elf/4.1.2\libgcc.a(_si_to_df.o)
                                0x1de (size before relaxing)
 .debug_str     0x00001d26        0xa f:/quatus/nios2eds/bin/gnu/h-i686-mingw32/bin/../lib/gcc/nios2-elf/4.1.2\libgcc.a(_df_to_si.o)
                                0x207 (size before relaxing)
 .debug_str     0x00000000      0x1a3 f:/quatus/nios2eds/bin/gnu/h-i686-mingw32/bin/../lib/gcc/nios2-elf/4.1.2\libgcc.a(_thenan_df.o)
 .debug_str     0x00001d30       0x14 f:/quatus/nios2eds/bin/gnu/h-i686-mingw32/bin/../lib/gcc/nios2-elf/4.1.2\libgcc.a(_usi_to_df.o)
                                0x1da (size before relaxing)
 .debug_str     0x00000000      0x161 f:/quatus/nios2eds/bin/gnu/h-i686-mingw32/bin/../lib/gcc/nios2-elf/4.1.2\libgcc.a(_clz.o)
 .debug_str     0x00001d44        0x9 f:/quatus/nios2eds/bin/gnu/h-i686-mingw32/bin/../lib/gcc/nios2-elf/4.1.2\libgcc.a(_clzsi2.o)
                                0x17e (size before relaxing)
 .debug_str     0x00001d4d        0x9 f:/quatus/nios2eds/bin/gnu/h-i686-mingw32/bin/../lib/gcc/nios2-elf/4.1.2\libgcc.a(_pack_df.o)
                                0x206 (size before relaxing)
 .debug_str     0x00001d56        0xb f:/quatus/nios2eds/bin/gnu/h-i686-mingw32/bin/../lib/gcc/nios2-elf/4.1.2\libgcc.a(_unpack_df.o)
                                0x1e8 (size before relaxing)
 .debug_str     0x00001d61       0x10 f:/quatus/nios2eds/bin/gnu/h-i686-mingw32/bin/../lib/gcc/nios2-elf/4.1.2\libgcc.a(_fpcmp_parts_df.o)
                                0x1c6 (size before relaxing)
 .debug_str     0x00001d71       0x12 ../homework_bsp/\libhal_bsp.a(alt_close.o)
 .debug_str     0x00001d83       0x12 ../homework_bsp/\libhal_bsp.a(alt_dev.o)
 .debug_str     0x00001d95       0x12 ../homework_bsp/\libhal_bsp.a(alt_errno.o)
 .debug_str     0x00001da7       0x12 ../homework_bsp/\libhal_bsp.a(alt_fstat.o)
 .debug_str     0x00001db9       0x21 ../homework_bsp/\libhal_bsp.a(alt_irq_register.o)
 .debug_str     0x00001dda       0x12 ../homework_bsp/\libhal_bsp.a(alt_isatty.o)
 .debug_str     0x00001dec       0x12 ../homework_bsp/\libhal_bsp.a(alt_load.o)
 .debug_str     0x00001dfe       0x12 ../homework_bsp/\libhal_bsp.a(alt_lseek.o)
 .debug_str     0x00001e10       0x12 ../homework_bsp/\libhal_bsp.a(alt_main.o)
 .debug_str     0x00001e22       0x20 ../homework_bsp/\libhal_bsp.a(alt_malloc_lock.o)
 .debug_str     0x00001e42       0x12 ../homework_bsp/\libhal_bsp.a(alt_read.o)
 .debug_str     0x00001e54       0x1a ../homework_bsp/\libhal_bsp.a(alt_sbrk.o)
 .debug_str     0x00001e6e       0x12 ../homework_bsp/\libhal_bsp.a(alt_write.o)
 .debug_str     0x00001e80       0x32 ../homework_bsp/\libhal_bsp.a(alt_sys_init.o)
 .debug_str     0x00001eb2       0x53 ../homework_bsp/\libhal_bsp.a(altera_avalon_dma.o)
 .debug_str     0x00001f05       0x12 ../homework_bsp/\libhal_bsp.a(altera_avalon_jtag_uart_fd.o)
 .debug_str     0x00001f17       0x1a ../homework_bsp/\libhal_bsp.a(altera_avalon_jtag_uart_init.o)
 .debug_str     0x00001f31       0x12 ../homework_bsp/\libhal_bsp.a(altera_avalon_jtag_uart_ioctl.o)
 .debug_str     0x00001f43       0x1a ../homework_bsp/\libhal_bsp.a(altera_avalon_jtag_uart_read.o)
 .debug_str     0x00001f5d       0x1a ../homework_bsp/\libhal_bsp.a(altera_avalon_jtag_uart_write.o)
 .debug_str     0x00001f77       0x12 ../homework_bsp/\libhal_bsp.a(altera_avalon_timer_vars.o)
 .debug_str     0x00001f89       0x12 ../homework_bsp/\libhal_bsp.a(altera_avalon_uart_fd.o)
 .debug_str     0x00001f9b       0x19 ../homework_bsp/\libhal_bsp.a(altera_avalon_uart_init.o)
 .debug_str     0x00001fb4       0x1a ../homework_bsp/\libhal_bsp.a(altera_avalon_uart_read.o)
 .debug_str     0x00001fce       0x1a ../homework_bsp/\libhal_bsp.a(altera_avalon_uart_write.o)
 .debug_str     0x00001fe8       0x23 ../homework_bsp/\libhal_bsp.a(alt_alarm_start.o)
 .debug_str     0x0000200b       0x12 ../homework_bsp/\libhal_bsp.a(alt_dcache_flush_all.o)
 .debug_str     0x0000201d       0x12 ../homework_bsp/\libhal_bsp.a(alt_dev_llist_insert.o)
 .debug_str     0x0000202f       0x12 ../homework_bsp/\libhal_bsp.a(alt_dma_rxchan_open.o)
 .debug_str     0x00002041       0x12 ../homework_bsp/\libhal_bsp.a(alt_dma_txchan_open.o)
 .debug_str     0x00002053       0x12 ../homework_bsp/\libhal_bsp.a(alt_find_dev.o)
 .debug_str     0x00002065       0x12 ../homework_bsp/\libhal_bsp.a(alt_icache_flush_all.o)
 .debug_str     0x00002077       0x18 ../homework_bsp/\libhal_bsp.a(alt_iic.o)
 .debug_str     0x0000208f       0x1a ../homework_bsp/\libhal_bsp.a(alt_iic_isr_register.o)
 .debug_str     0x000020a9       0x12 ../homework_bsp/\libhal_bsp.a(alt_io_redirect.o)
 .debug_str     0x000020bb       0x12 ../homework_bsp/\libhal_bsp.a(alt_irq_handler.o)
 .debug_str     0x000020cd       0x12 ../homework_bsp/\libhal_bsp.a(alt_open.o)
 .debug_str     0x000020df       0x1a ../homework_bsp/\libhal_bsp.a(alt_tick.o)
 .debug_str     0x000020f9       0x12 ../homework_bsp/\libhal_bsp.a(altera_nios2_qsys_irq.o)
 .debug_str     0x0000210b       0x12 ../homework_bsp/\libhal_bsp.a(alt_find_file.o)
 .debug_str     0x0000211d       0x12 ../homework_bsp/\libhal_bsp.a(alt_get_fd.o)
 .debug_str     0x0000212f       0x12 ../homework_bsp/\libhal_bsp.a(alt_icache_flush.o)
 .debug_str     0x00002141       0x3b f:/quatus/nios2eds/bin/gnu/h-i686-mingw32/bin/../lib/gcc/nios2-elf/4.1.2/../../../../nios2-elf/lib\libc.a(lib_a-atexit.o)
                                0x1bf (size before relaxing)
 .debug_str     0x0000217c       0x3e f:/quatus/nios2eds/bin/gnu/h-i686-mingw32/bin/../lib/gcc/nios2-elf/4.1.2/../../../../nios2-elf/lib\libc.a(lib_a-exit.o)
                                0x50c (size before relaxing)
 .debug_str     0x000021ba       0x42 f:/quatus/nios2eds/bin/gnu/h-i686-mingw32/bin/../lib/gcc/nios2-elf/4.1.2/../../../../nios2-elf/lib\libc.a(lib_a-memcmp.o)
                                0x16a (size before relaxing)
 .debug_str     0x000021fc       0x51 f:/quatus/nios2eds/bin/gnu/h-i686-mingw32/bin/../lib/gcc/nios2-elf/4.1.2/../../../../nios2-elf/lib\libc.a(lib_a-__atexit.o)
                                0x524 (size before relaxing)
 .debug_str     0x0000224d       0x7b f:/quatus/nios2eds/bin/gnu/h-i686-mingw32/bin/../lib/gcc/nios2-elf/4.1.2/../../../../nios2-elf/lib\libc.a(lib_a-__call_atexit.o)
                                0x54e (size before relaxing)
 .debug_str     0x000022c8       0x1c ../homework_bsp/\libhal_bsp.a(alt_exit.o)

.debug_loc      0x00000000     0xc5e0
 *(.debug_loc)
 .debug_loc     0x00000000       0x2b obj/default/hello_world.o
 .debug_loc     0x0000002b       0xac obj/default/pio.o
 .debug_loc     0x000000d7       0xac obj/default/timebt.o
 .debug_loc     0x00000183      0x103 f:/quatus/nios2eds/bin/gnu/h-i686-mingw32/bin/../lib/gcc/nios2-elf/4.1.2\libgcc.a(_mul_sf.o)
 .debug_loc     0x00000286       0x66 f:/quatus/nios2eds/bin/gnu/h-i686-mingw32/bin/../lib/gcc/nios2-elf/4.1.2\libgcc.a(_sf_to_si.o)
 .debug_loc     0x000002ec      0x1d2 f:/quatus/nios2eds/bin/gnu/h-i686-mingw32/bin/../lib/gcc/nios2-elf/4.1.2\libgcc.a(lib2-divmod.o)
 .debug_loc     0x000004be       0xc4 f:/quatus/nios2eds/bin/gnu/h-i686-mingw32/bin/../lib/gcc/nios2-elf/4.1.2\libgcc.a(_muldi3.o)
 .debug_loc     0x00000582       0xf9 f:/quatus/nios2eds/bin/gnu/h-i686-mingw32/bin/../lib/gcc/nios2-elf/4.1.2\libgcc.a(_pack_sf.o)
 .debug_loc     0x0000067b       0x31 f:/quatus/nios2eds/bin/gnu/h-i686-mingw32/bin/../lib/gcc/nios2-elf/4.1.2\libgcc.a(_unpack_sf.o)
 .debug_loc     0x000006ac       0xcb f:/quatus/nios2eds/bin/gnu/h-i686-mingw32/bin/../lib/gcc/nios2-elf/4.1.2/../../../../nios2-elf/lib\libc.a(lib_a-printf.o)
 .debug_loc     0x00000777       0xa2 f:/quatus/nios2eds/bin/gnu/h-i686-mingw32/bin/../lib/gcc/nios2-elf/4.1.2/../../../../nios2-elf/lib\libc.a(lib_a-puts.o)
 .debug_loc     0x00000819       0x3c f:/quatus/nios2eds/bin/gnu/h-i686-mingw32/bin/../lib/gcc/nios2-elf/4.1.2/../../../../nios2-elf/lib\libc.a(lib_a-strlen.o)
 .debug_loc     0x00000855     0x1e0d f:/quatus/nios2eds/bin/gnu/h-i686-mingw32/bin/../lib/gcc/nios2-elf/4.1.2/../../../../nios2-elf/lib\libc.a(lib_a-vfprintf.o)
 .debug_loc     0x00002662       0x7c f:/quatus/nios2eds/bin/gnu/h-i686-mingw32/bin/../lib/gcc/nios2-elf/4.1.2/../../../../nios2-elf/lib\libc.a(lib_a-wsetup.o)
 .debug_loc     0x000026de     0x1dfa f:/quatus/nios2eds/bin/gnu/h-i686-mingw32/bin/../lib/gcc/nios2-elf/4.1.2/../../../../nios2-elf/lib\libc.a(lib_a-dtoa.o)
 .debug_loc     0x000044d8      0x1f6 f:/quatus/nios2eds/bin/gnu/h-i686-mingw32/bin/../lib/gcc/nios2-elf/4.1.2/../../../../nios2-elf/lib\libc.a(lib_a-fflush.o)
 .debug_loc     0x000046ce      0x19f f:/quatus/nios2eds/bin/gnu/h-i686-mingw32/bin/../lib/gcc/nios2-elf/4.1.2/../../../../nios2-elf/lib\libc.a(lib_a-findfp.o)
 .debug_loc     0x0000486d      0x4a7 f:/quatus/nios2eds/bin/gnu/h-i686-mingw32/bin/../lib/gcc/nios2-elf/4.1.2/../../../../nios2-elf/lib\libc.a(lib_a-freer.o)
 .debug_loc     0x00004d14      0x4e4 f:/quatus/nios2eds/bin/gnu/h-i686-mingw32/bin/../lib/gcc/nios2-elf/4.1.2/../../../../nios2-elf/lib\libc.a(lib_a-fvwrite.o)
 .debug_loc     0x000051f8      0x1d2 f:/quatus/nios2eds/bin/gnu/h-i686-mingw32/bin/../lib/gcc/nios2-elf/4.1.2/../../../../nios2-elf/lib\libc.a(lib_a-fwalk.o)
 .debug_loc     0x000053ca       0xe1 f:/quatus/nios2eds/bin/gnu/h-i686-mingw32/bin/../lib/gcc/nios2-elf/4.1.2/../../../../nios2-elf/lib\libc.a(lib_a-locale.o)
 .debug_loc     0x000054ab      0x11c f:/quatus/nios2eds/bin/gnu/h-i686-mingw32/bin/../lib/gcc/nios2-elf/4.1.2/../../../../nios2-elf/lib\libc.a(lib_a-makebuf.o)
 .debug_loc     0x000055c7      0xaeb f:/quatus/nios2eds/bin/gnu/h-i686-mingw32/bin/../lib/gcc/nios2-elf/4.1.2/../../../../nios2-elf/lib\libc.a(lib_a-mallocr.o)
 .debug_loc     0x000060b2      0x106 f:/quatus/nios2eds/bin/gnu/h-i686-mingw32/bin/../lib/gcc/nios2-elf/4.1.2/../../../../nios2-elf/lib\libc.a(lib_a-memchr.o)
 .debug_loc     0x000061b8       0xca f:/quatus/nios2eds/bin/gnu/h-i686-mingw32/bin/../lib/gcc/nios2-elf/4.1.2/../../../../nios2-elf/lib\libc.a(lib_a-memcpy.o)
 .debug_loc     0x00006282      0x117 f:/quatus/nios2eds/bin/gnu/h-i686-mingw32/bin/../lib/gcc/nios2-elf/4.1.2/../../../../nios2-elf/lib\libc.a(lib_a-memmove.o)
 .debug_loc     0x00006399       0xa1 f:/quatus/nios2eds/bin/gnu/h-i686-mingw32/bin/../lib/gcc/nios2-elf/4.1.2/../../../../nios2-elf/lib\libc.a(lib_a-memset.o)
 .debug_loc     0x0000643a     0x14d6 f:/quatus/nios2eds/bin/gnu/h-i686-mingw32/bin/../lib/gcc/nios2-elf/4.1.2/../../../../nios2-elf/lib\libc.a(lib_a-mprec.o)
 .debug_loc     0x00007910      0x8c0 f:/quatus/nios2eds/bin/gnu/h-i686-mingw32/bin/../lib/gcc/nios2-elf/4.1.2/../../../../nios2-elf/lib\libc.a(lib_a-reallocr.o)
 .debug_loc     0x000081d0       0x36 f:/quatus/nios2eds/bin/gnu/h-i686-mingw32/bin/../lib/gcc/nios2-elf/4.1.2/../../../../nios2-elf/lib\libc.a(lib_a-s_isinfd.o)
 .debug_loc     0x00008206       0x18 f:/quatus/nios2eds/bin/gnu/h-i686-mingw32/bin/../lib/gcc/nios2-elf/4.1.2/../../../../nios2-elf/lib\libc.a(lib_a-s_isnand.o)
 .debug_loc     0x0000821e       0x5b f:/quatus/nios2eds/bin/gnu/h-i686-mingw32/bin/../lib/gcc/nios2-elf/4.1.2/../../../../nios2-elf/lib\libc.a(lib_a-sbrkr.o)
 .debug_loc     0x00008279      0x21f f:/quatus/nios2eds/bin/gnu/h-i686-mingw32/bin/../lib/gcc/nios2-elf/4.1.2/../../../../nios2-elf/lib\libc.a(lib_a-stdio.o)
 .debug_loc     0x00008498       0x65 f:/quatus/nios2eds/bin/gnu/h-i686-mingw32/bin/../lib/gcc/nios2-elf/4.1.2/../../../../nios2-elf/lib\libc.a(lib_a-strcmp.o)
 .debug_loc     0x000084fd       0x97 f:/quatus/nios2eds/bin/gnu/h-i686-mingw32/bin/../lib/gcc/nios2-elf/4.1.2/../../../../nios2-elf/lib\libc.a(lib_a-writer.o)
 .debug_loc     0x00008594       0xe9 f:/quatus/nios2eds/bin/gnu/h-i686-mingw32/bin/../lib/gcc/nios2-elf/4.1.2/../../../../nios2-elf/lib\libc.a(lib_a-callocr.o)
 .debug_loc     0x0000867d       0x5b f:/quatus/nios2eds/bin/gnu/h-i686-mingw32/bin/../lib/gcc/nios2-elf/4.1.2/../../../../nios2-elf/lib\libc.a(lib_a-closer.o)
 .debug_loc     0x000086d8       0xe4 f:/quatus/nios2eds/bin/gnu/h-i686-mingw32/bin/../lib/gcc/nios2-elf/4.1.2/../../../../nios2-elf/lib\libc.a(lib_a-fclose.o)
 .debug_loc     0x000087bc       0x79 f:/quatus/nios2eds/bin/gnu/h-i686-mingw32/bin/../lib/gcc/nios2-elf/4.1.2/../../../../nios2-elf/lib\libc.a(lib_a-fstatr.o)
 .debug_loc     0x00008835       0x5b f:/quatus/nios2eds/bin/gnu/h-i686-mingw32/bin/../lib/gcc/nios2-elf/4.1.2/../../../../nios2-elf/lib\libc.a(lib_a-isattyr.o)
 .debug_loc     0x00008890       0x97 f:/quatus/nios2eds/bin/gnu/h-i686-mingw32/bin/../lib/gcc/nios2-elf/4.1.2/../../../../nios2-elf/lib\libc.a(lib_a-lseekr.o)
 .debug_loc     0x00008927       0x97 f:/quatus/nios2eds/bin/gnu/h-i686-mingw32/bin/../lib/gcc/nios2-elf/4.1.2/../../../../nios2-elf/lib\libc.a(lib_a-readr.o)
 .debug_loc     0x000089be      0xc12 f:/quatus/nios2eds/bin/gnu/h-i686-mingw32/bin/../lib/gcc/nios2-elf/4.1.2\libgcc.a(_udivdi3.o)
 .debug_loc     0x000095d0      0xc26 f:/quatus/nios2eds/bin/gnu/h-i686-mingw32/bin/../lib/gcc/nios2-elf/4.1.2\libgcc.a(_umoddi3.o)
 .debug_loc     0x0000a1f6      0x47a f:/quatus/nios2eds/bin/gnu/h-i686-mingw32/bin/../lib/gcc/nios2-elf/4.1.2\libgcc.a(_addsub_df.o)
 .debug_loc     0x0000a670      0x3b4 f:/quatus/nios2eds/bin/gnu/h-i686-mingw32/bin/../lib/gcc/nios2-elf/4.1.2\libgcc.a(_mul_df.o)
 .debug_loc     0x0000aa24      0x1df f:/quatus/nios2eds/bin/gnu/h-i686-mingw32/bin/../lib/gcc/nios2-elf/4.1.2\libgcc.a(_div_df.o)
 .debug_loc     0x0000ac03       0x70 f:/quatus/nios2eds/bin/gnu/h-i686-mingw32/bin/../lib/gcc/nios2-elf/4.1.2\libgcc.a(_eq_df.o)
 .debug_loc     0x0000ac73       0x70 f:/quatus/nios2eds/bin/gnu/h-i686-mingw32/bin/../lib/gcc/nios2-elf/4.1.2\libgcc.a(_ne_df.o)
 .debug_loc     0x0000ace3       0x70 f:/quatus/nios2eds/bin/gnu/h-i686-mingw32/bin/../lib/gcc/nios2-elf/4.1.2\libgcc.a(_gt_df.o)
 .debug_loc     0x0000ad53       0x70 f:/quatus/nios2eds/bin/gnu/h-i686-mingw32/bin/../lib/gcc/nios2-elf/4.1.2\libgcc.a(_ge_df.o)
 .debug_loc     0x0000adc3       0x70 f:/quatus/nios2eds/bin/gnu/h-i686-mingw32/bin/../lib/gcc/nios2-elf/4.1.2\libgcc.a(_lt_df.o)
 .debug_loc     0x0000ae33       0x9a f:/quatus/nios2eds/bin/gnu/h-i686-mingw32/bin/../lib/gcc/nios2-elf/4.1.2\libgcc.a(_si_to_df.o)
 .debug_loc     0x0000aecd       0x8b f:/quatus/nios2eds/bin/gnu/h-i686-mingw32/bin/../lib/gcc/nios2-elf/4.1.2\libgcc.a(_df_to_si.o)
 .debug_loc     0x0000af58       0x5b f:/quatus/nios2eds/bin/gnu/h-i686-mingw32/bin/../lib/gcc/nios2-elf/4.1.2\libgcc.a(_usi_to_df.o)
 .debug_loc     0x0000afb3       0x1e f:/quatus/nios2eds/bin/gnu/h-i686-mingw32/bin/../lib/gcc/nios2-elf/4.1.2\libgcc.a(_clzsi2.o)
 .debug_loc     0x0000afd1      0x184 f:/quatus/nios2eds/bin/gnu/h-i686-mingw32/bin/../lib/gcc/nios2-elf/4.1.2\libgcc.a(_pack_df.o)
 .debug_loc     0x0000b155       0xe5 f:/quatus/nios2eds/bin/gnu/h-i686-mingw32/bin/../lib/gcc/nios2-elf/4.1.2\libgcc.a(_unpack_df.o)
 .debug_loc     0x0000b23a       0x56 ../homework_bsp/\libhal_bsp.a(alt_close.o)
 .debug_loc     0x0000b290       0x2b ../homework_bsp/\libhal_bsp.a(alt_dev.o)
 .debug_loc     0x0000b2bb       0x56 ../homework_bsp/\libhal_bsp.a(alt_fstat.o)
 .debug_loc     0x0000b311       0x2c ../homework_bsp/\libhal_bsp.a(alt_irq_register.o)
 .debug_loc     0x0000b33d       0x57 ../homework_bsp/\libhal_bsp.a(alt_isatty.o)
 .debug_loc     0x0000b394       0x56 ../homework_bsp/\libhal_bsp.a(alt_load.o)
 .debug_loc     0x0000b3ea       0x56 ../homework_bsp/\libhal_bsp.a(alt_lseek.o)
 .debug_loc     0x0000b440       0x2b ../homework_bsp/\libhal_bsp.a(alt_main.o)
 .debug_loc     0x0000b46b       0x56 ../homework_bsp/\libhal_bsp.a(alt_malloc_lock.o)
 .debug_loc     0x0000b4c1       0x56 ../homework_bsp/\libhal_bsp.a(alt_read.o)
 .debug_loc     0x0000b517       0x2b ../homework_bsp/\libhal_bsp.a(alt_release_fd.o)
 .debug_loc     0x0000b542       0x2b ../homework_bsp/\libhal_bsp.a(alt_sbrk.o)
 .debug_loc     0x0000b56d       0x56 ../homework_bsp/\libhal_bsp.a(alt_write.o)
 .debug_loc     0x0000b5c3       0x81 ../homework_bsp/\libhal_bsp.a(alt_sys_init.o)
 .debug_loc     0x0000b644      0x22f ../homework_bsp/\libhal_bsp.a(altera_avalon_dma.o)
 .debug_loc     0x0000b873       0xac ../homework_bsp/\libhal_bsp.a(altera_avalon_jtag_uart_fd.o)
 .debug_loc     0x0000b91f       0xac ../homework_bsp/\libhal_bsp.a(altera_avalon_jtag_uart_init.o)
 .debug_loc     0x0000b9cb       0x2b ../homework_bsp/\libhal_bsp.a(altera_avalon_jtag_uart_ioctl.o)
 .debug_loc     0x0000b9f6       0x2b ../homework_bsp/\libhal_bsp.a(altera_avalon_jtag_uart_read.o)
 .debug_loc     0x0000ba21       0x2b ../homework_bsp/\libhal_bsp.a(altera_avalon_jtag_uart_write.o)
 .debug_loc     0x0000ba4c       0x81 ../homework_bsp/\libhal_bsp.a(altera_avalon_uart_fd.o)
 .debug_loc     0x0000bacd       0xd7 ../homework_bsp/\libhal_bsp.a(altera_avalon_uart_init.o)
 .debug_loc     0x0000bba4       0x57 ../homework_bsp/\libhal_bsp.a(altera_avalon_uart_read.o)
 .debug_loc     0x0000bbfb       0x56 ../homework_bsp/\libhal_bsp.a(altera_avalon_uart_write.o)
 .debug_loc     0x0000bc51       0x2b ../homework_bsp/\libhal_bsp.a(alt_alarm_start.o)
 .debug_loc     0x0000bc7c       0x2b ../homework_bsp/\libhal_bsp.a(alt_dcache_flush_all.o)
 .debug_loc     0x0000bca7       0x56 ../homework_bsp/\libhal_bsp.a(alt_dev_llist_insert.o)
 .debug_loc     0x0000bcfd       0x56 ../homework_bsp/\libhal_bsp.a(alt_dma_rxchan_open.o)
 .debug_loc     0x0000bd53       0x56 ../homework_bsp/\libhal_bsp.a(alt_dma_txchan_open.o)
 .debug_loc     0x0000bda9       0x2b ../homework_bsp/\libhal_bsp.a(alt_do_ctors.o)
 .debug_loc     0x0000bdd4       0x2b ../homework_bsp/\libhal_bsp.a(alt_do_dtors.o)
 .debug_loc     0x0000bdff       0x2b ../homework_bsp/\libhal_bsp.a(alt_find_dev.o)
 .debug_loc     0x0000be2a       0x2b ../homework_bsp/\libhal_bsp.a(alt_icache_flush_all.o)
 .debug_loc     0x0000be55       0xac ../homework_bsp/\libhal_bsp.a(alt_iic.o)
 .debug_loc     0x0000bf01       0x2b ../homework_bsp/\libhal_bsp.a(alt_iic_isr_register.o)
 .debug_loc     0x0000bf2c       0x56 ../homework_bsp/\libhal_bsp.a(alt_io_redirect.o)
 .debug_loc     0x0000bf82       0x2b ../homework_bsp/\libhal_bsp.a(alt_irq_handler.o)
 .debug_loc     0x0000bfad       0x81 ../homework_bsp/\libhal_bsp.a(alt_open.o)
 .debug_loc     0x0000c02e       0x56 ../homework_bsp/\libhal_bsp.a(alt_tick.o)
 .debug_loc     0x0000c084       0x2b ../homework_bsp/\libhal_bsp.a(altera_nios2_qsys_irq.o)
 .debug_loc     0x0000c0af       0x2b ../homework_bsp/\libhal_bsp.a(alt_find_file.o)
 .debug_loc     0x0000c0da       0x2b ../homework_bsp/\libhal_bsp.a(alt_get_fd.o)
 .debug_loc     0x0000c105       0x2b ../homework_bsp/\libhal_bsp.a(alt_icache_flush.o)
 .debug_loc     0x0000c130       0x1e f:/quatus/nios2eds/bin/gnu/h-i686-mingw32/bin/../lib/gcc/nios2-elf/4.1.2/../../../../nios2-elf/lib\libc.a(lib_a-atexit.o)
 .debug_loc     0x0000c14e       0x3d f:/quatus/nios2eds/bin/gnu/h-i686-mingw32/bin/../lib/gcc/nios2-elf/4.1.2/../../../../nios2-elf/lib\libc.a(lib_a-exit.o)
 .debug_loc     0x0000c18b      0x114 f:/quatus/nios2eds/bin/gnu/h-i686-mingw32/bin/../lib/gcc/nios2-elf/4.1.2/../../../../nios2-elf/lib\libc.a(lib_a-memcmp.o)
 .debug_loc     0x0000c29f      0x120 f:/quatus/nios2eds/bin/gnu/h-i686-mingw32/bin/../lib/gcc/nios2-elf/4.1.2/../../../../nios2-elf/lib\libc.a(lib_a-__atexit.o)
 .debug_loc     0x0000c3bf      0x1cb f:/quatus/nios2eds/bin/gnu/h-i686-mingw32/bin/../lib/gcc/nios2-elf/4.1.2/../../../../nios2-elf/lib\libc.a(lib_a-__call_atexit.o)
 .debug_loc     0x0000c58a       0x56 ../homework_bsp/\libhal_bsp.a(alt_exit.o)

.debug_macinfo
 *(.debug_macinfo)

.debug_weaknames
 *(.debug_weaknames)

.debug_funcnames
 *(.debug_funcnames)

.debug_typenames
 *(.debug_typenames)

.debug_varnames
 *(.debug_varnames)

.debug_alt_sim_info
                0x00000000       0x30
 *(.debug_alt_sim_info)
 .debug_alt_sim_info
                0x00000000       0x30 ../homework_bsp//obj/HAL/src/crt0.o
                0x04000000                __alt_data_end = 0x4000000
                0x04000000                PROVIDE (__alt_stack_pointer, __alt_data_end)
                0x02012b10                PROVIDE (__alt_stack_limit, __alt_stack_base)
                0x02012b10                PROVIDE (__alt_heap_start, end)
                0x04000000                PROVIDE (__alt_heap_limit, 0x4000000)
OUTPUT(homework.elf elf32-littlenios2)

.debug_ranges   0x00000000      0xa10
 .debug_ranges  0x00000000       0x20 ../homework_bsp//obj/HAL/src/crt0.o
 .debug_ranges  0x00000020       0x80 f:/quatus/nios2eds/bin/gnu/h-i686-mingw32/bin/../lib/gcc/nios2-elf/4.1.2\libgcc.a(_mul_sf.o)
 .debug_ranges  0x000000a0       0x68 f:/quatus/nios2eds/bin/gnu/h-i686-mingw32/bin/../lib/gcc/nios2-elf/4.1.2\libgcc.a(_muldi3.o)
 .debug_ranges  0x00000108      0x168 f:/quatus/nios2eds/bin/gnu/h-i686-mingw32/bin/../lib/gcc/nios2-elf/4.1.2/../../../../nios2-elf/lib\libc.a(lib_a-vfprintf.o)
 .debug_ranges  0x00000270       0x20 f:/quatus/nios2eds/bin/gnu/h-i686-mingw32/bin/../lib/gcc/nios2-elf/4.1.2/../../../../nios2-elf/lib\libc.a(lib_a-fflush.o)
 .debug_ranges  0x00000290       0x28 f:/quatus/nios2eds/bin/gnu/h-i686-mingw32/bin/../lib/gcc/nios2-elf/4.1.2/../../../../nios2-elf/lib\libc.a(lib_a-fvwrite.o)
 .debug_ranges  0x000002b8       0xa0 f:/quatus/nios2eds/bin/gnu/h-i686-mingw32/bin/../lib/gcc/nios2-elf/4.1.2/../../../../nios2-elf/lib\libc.a(lib_a-fwalk.o)
 .debug_ranges  0x00000358       0x70 f:/quatus/nios2eds/bin/gnu/h-i686-mingw32/bin/../lib/gcc/nios2-elf/4.1.2/../../../../nios2-elf/lib\libc.a(lib_a-mallocr.o)
 .debug_ranges  0x000003c8      0x110 f:/quatus/nios2eds/bin/gnu/h-i686-mingw32/bin/../lib/gcc/nios2-elf/4.1.2/../../../../nios2-elf/lib\libc.a(lib_a-reallocr.o)
 .debug_ranges  0x000004d8       0x38 f:/quatus/nios2eds/bin/gnu/h-i686-mingw32/bin/../lib/gcc/nios2-elf/4.1.2/../../../../nios2-elf/lib\libc.a(lib_a-callocr.o)
 .debug_ranges  0x00000510      0x188 f:/quatus/nios2eds/bin/gnu/h-i686-mingw32/bin/../lib/gcc/nios2-elf/4.1.2\libgcc.a(_udivdi3.o)
 .debug_ranges  0x00000698      0x198 f:/quatus/nios2eds/bin/gnu/h-i686-mingw32/bin/../lib/gcc/nios2-elf/4.1.2\libgcc.a(_umoddi3.o)
 .debug_ranges  0x00000830       0x30 f:/quatus/nios2eds/bin/gnu/h-i686-mingw32/bin/../lib/gcc/nios2-elf/4.1.2\libgcc.a(_addsub_df.o)
 .debug_ranges  0x00000860       0x88 f:/quatus/nios2eds/bin/gnu/h-i686-mingw32/bin/../lib/gcc/nios2-elf/4.1.2\libgcc.a(_mul_df.o)
 .debug_ranges  0x000008e8       0x50 f:/quatus/nios2eds/bin/gnu/h-i686-mingw32/bin/../lib/gcc/nios2-elf/4.1.2\libgcc.a(_div_df.o)
 .debug_ranges  0x00000938       0x18 f:/quatus/nios2eds/bin/gnu/h-i686-mingw32/bin/../lib/gcc/nios2-elf/4.1.2\libgcc.a(_usi_to_df.o)
 .debug_ranges  0x00000950       0x28 f:/quatus/nios2eds/bin/gnu/h-i686-mingw32/bin/../lib/gcc/nios2-elf/4.1.2\libgcc.a(_clzsi2.o)
 .debug_ranges  0x00000978       0x28 f:/quatus/nios2eds/bin/gnu/h-i686-mingw32/bin/../lib/gcc/nios2-elf/4.1.2\libgcc.a(_pack_df.o)
 .debug_ranges  0x000009a0       0x28 ../homework_bsp/\libhal_bsp.a(alt_irq_entry.o)
 .debug_ranges  0x000009c8       0x30 ../homework_bsp/\libhal_bsp.a(alt_exception_entry.o)
 .debug_ranges  0x000009f8       0x18 f:/quatus/nios2eds/bin/gnu/h-i686-mingw32/bin/../lib/gcc/nios2-elf/4.1.2/../../../../nios2-elf/lib\libc.a(lib_a-__call_atexit.o)
